
rtarget:     file format elf64-x86-64


Disassembly of section .init:

0000000000400ce0 <_init>:
  400ce0:	f3 0f 1e fa          	endbr64 
  400ce4:	48 83 ec 08          	sub    $0x8,%rsp
  400ce8:	48 8b 05 01 43 20 00 	mov    0x204301(%rip),%rax        # 604ff0 <__gmon_start__>
  400cef:	48 85 c0             	test   %rax,%rax
  400cf2:	74 02                	je     400cf6 <_init+0x16>
  400cf4:	ff d0                	callq  *%rax
  400cf6:	48 83 c4 08          	add    $0x8,%rsp
  400cfa:	c3                   	retq   

Disassembly of section .plt:

0000000000400d00 <.plt>:
  400d00:	ff 35 02 43 20 00    	pushq  0x204302(%rip)        # 605008 <_GLOBAL_OFFSET_TABLE_+0x8>
  400d06:	ff 25 04 43 20 00    	jmpq   *0x204304(%rip)        # 605010 <_GLOBAL_OFFSET_TABLE_+0x10>
  400d0c:	0f 1f 40 00          	nopl   0x0(%rax)

0000000000400d10 <strcasecmp@plt>:
  400d10:	ff 25 02 43 20 00    	jmpq   *0x204302(%rip)        # 605018 <strcasecmp@GLIBC_2.2.5>
  400d16:	68 00 00 00 00       	pushq  $0x0
  400d1b:	e9 e0 ff ff ff       	jmpq   400d00 <.plt>

0000000000400d20 <__errno_location@plt>:
  400d20:	ff 25 fa 42 20 00    	jmpq   *0x2042fa(%rip)        # 605020 <__errno_location@GLIBC_2.2.5>
  400d26:	68 01 00 00 00       	pushq  $0x1
  400d2b:	e9 d0 ff ff ff       	jmpq   400d00 <.plt>

0000000000400d30 <srandom@plt>:
  400d30:	ff 25 f2 42 20 00    	jmpq   *0x2042f2(%rip)        # 605028 <srandom@GLIBC_2.2.5>
  400d36:	68 02 00 00 00       	pushq  $0x2
  400d3b:	e9 c0 ff ff ff       	jmpq   400d00 <.plt>

0000000000400d40 <strncmp@plt>:
  400d40:	ff 25 ea 42 20 00    	jmpq   *0x2042ea(%rip)        # 605030 <strncmp@GLIBC_2.2.5>
  400d46:	68 03 00 00 00       	pushq  $0x3
  400d4b:	e9 b0 ff ff ff       	jmpq   400d00 <.plt>

0000000000400d50 <strcpy@plt>:
  400d50:	ff 25 e2 42 20 00    	jmpq   *0x2042e2(%rip)        # 605038 <strcpy@GLIBC_2.2.5>
  400d56:	68 04 00 00 00       	pushq  $0x4
  400d5b:	e9 a0 ff ff ff       	jmpq   400d00 <.plt>

0000000000400d60 <puts@plt>:
  400d60:	ff 25 da 42 20 00    	jmpq   *0x2042da(%rip)        # 605040 <puts@GLIBC_2.2.5>
  400d66:	68 05 00 00 00       	pushq  $0x5
  400d6b:	e9 90 ff ff ff       	jmpq   400d00 <.plt>

0000000000400d70 <write@plt>:
  400d70:	ff 25 d2 42 20 00    	jmpq   *0x2042d2(%rip)        # 605048 <write@GLIBC_2.2.5>
  400d76:	68 06 00 00 00       	pushq  $0x6
  400d7b:	e9 80 ff ff ff       	jmpq   400d00 <.plt>

0000000000400d80 <mmap@plt>:
  400d80:	ff 25 ca 42 20 00    	jmpq   *0x2042ca(%rip)        # 605050 <mmap@GLIBC_2.2.5>
  400d86:	68 07 00 00 00       	pushq  $0x7
  400d8b:	e9 70 ff ff ff       	jmpq   400d00 <.plt>

0000000000400d90 <printf@plt>:
  400d90:	ff 25 c2 42 20 00    	jmpq   *0x2042c2(%rip)        # 605058 <printf@GLIBC_2.2.5>
  400d96:	68 08 00 00 00       	pushq  $0x8
  400d9b:	e9 60 ff ff ff       	jmpq   400d00 <.plt>

0000000000400da0 <memset@plt>:
  400da0:	ff 25 ba 42 20 00    	jmpq   *0x2042ba(%rip)        # 605060 <memset@GLIBC_2.2.5>
  400da6:	68 09 00 00 00       	pushq  $0x9
  400dab:	e9 50 ff ff ff       	jmpq   400d00 <.plt>

0000000000400db0 <alarm@plt>:
  400db0:	ff 25 b2 42 20 00    	jmpq   *0x2042b2(%rip)        # 605068 <alarm@GLIBC_2.2.5>
  400db6:	68 0a 00 00 00       	pushq  $0xa
  400dbb:	e9 40 ff ff ff       	jmpq   400d00 <.plt>

0000000000400dc0 <close@plt>:
  400dc0:	ff 25 aa 42 20 00    	jmpq   *0x2042aa(%rip)        # 605070 <close@GLIBC_2.2.5>
  400dc6:	68 0b 00 00 00       	pushq  $0xb
  400dcb:	e9 30 ff ff ff       	jmpq   400d00 <.plt>

0000000000400dd0 <read@plt>:
  400dd0:	ff 25 a2 42 20 00    	jmpq   *0x2042a2(%rip)        # 605078 <read@GLIBC_2.2.5>
  400dd6:	68 0c 00 00 00       	pushq  $0xc
  400ddb:	e9 20 ff ff ff       	jmpq   400d00 <.plt>

0000000000400de0 <signal@plt>:
  400de0:	ff 25 9a 42 20 00    	jmpq   *0x20429a(%rip)        # 605080 <signal@GLIBC_2.2.5>
  400de6:	68 0d 00 00 00       	pushq  $0xd
  400deb:	e9 10 ff ff ff       	jmpq   400d00 <.plt>

0000000000400df0 <gethostbyname@plt>:
  400df0:	ff 25 92 42 20 00    	jmpq   *0x204292(%rip)        # 605088 <gethostbyname@GLIBC_2.2.5>
  400df6:	68 0e 00 00 00       	pushq  $0xe
  400dfb:	e9 00 ff ff ff       	jmpq   400d00 <.plt>

0000000000400e00 <fprintf@plt>:
  400e00:	ff 25 8a 42 20 00    	jmpq   *0x20428a(%rip)        # 605090 <fprintf@GLIBC_2.2.5>
  400e06:	68 0f 00 00 00       	pushq  $0xf
  400e0b:	e9 f0 fe ff ff       	jmpq   400d00 <.plt>

0000000000400e10 <strtol@plt>:
  400e10:	ff 25 82 42 20 00    	jmpq   *0x204282(%rip)        # 605098 <strtol@GLIBC_2.2.5>
  400e16:	68 10 00 00 00       	pushq  $0x10
  400e1b:	e9 e0 fe ff ff       	jmpq   400d00 <.plt>

0000000000400e20 <memcpy@plt>:
  400e20:	ff 25 7a 42 20 00    	jmpq   *0x20427a(%rip)        # 6050a0 <memcpy@GLIBC_2.14>
  400e26:	68 11 00 00 00       	pushq  $0x11
  400e2b:	e9 d0 fe ff ff       	jmpq   400d00 <.plt>

0000000000400e30 <time@plt>:
  400e30:	ff 25 72 42 20 00    	jmpq   *0x204272(%rip)        # 6050a8 <time@GLIBC_2.2.5>
  400e36:	68 12 00 00 00       	pushq  $0x12
  400e3b:	e9 c0 fe ff ff       	jmpq   400d00 <.plt>

0000000000400e40 <random@plt>:
  400e40:	ff 25 6a 42 20 00    	jmpq   *0x20426a(%rip)        # 6050b0 <random@GLIBC_2.2.5>
  400e46:	68 13 00 00 00       	pushq  $0x13
  400e4b:	e9 b0 fe ff ff       	jmpq   400d00 <.plt>

0000000000400e50 <__isoc99_sscanf@plt>:
  400e50:	ff 25 62 42 20 00    	jmpq   *0x204262(%rip)        # 6050b8 <__isoc99_sscanf@GLIBC_2.7>
  400e56:	68 14 00 00 00       	pushq  $0x14
  400e5b:	e9 a0 fe ff ff       	jmpq   400d00 <.plt>

0000000000400e60 <munmap@plt>:
  400e60:	ff 25 5a 42 20 00    	jmpq   *0x20425a(%rip)        # 6050c0 <munmap@GLIBC_2.2.5>
  400e66:	68 15 00 00 00       	pushq  $0x15
  400e6b:	e9 90 fe ff ff       	jmpq   400d00 <.plt>

0000000000400e70 <memmove@plt>:
  400e70:	ff 25 52 42 20 00    	jmpq   *0x204252(%rip)        # 6050c8 <memmove@GLIBC_2.2.5>
  400e76:	68 16 00 00 00       	pushq  $0x16
  400e7b:	e9 80 fe ff ff       	jmpq   400d00 <.plt>

0000000000400e80 <fopen@plt>:
  400e80:	ff 25 4a 42 20 00    	jmpq   *0x20424a(%rip)        # 6050d0 <fopen@GLIBC_2.2.5>
  400e86:	68 17 00 00 00       	pushq  $0x17
  400e8b:	e9 70 fe ff ff       	jmpq   400d00 <.plt>

0000000000400e90 <getopt@plt>:
  400e90:	ff 25 42 42 20 00    	jmpq   *0x204242(%rip)        # 6050d8 <getopt@GLIBC_2.2.5>
  400e96:	68 18 00 00 00       	pushq  $0x18
  400e9b:	e9 60 fe ff ff       	jmpq   400d00 <.plt>

0000000000400ea0 <strtoul@plt>:
  400ea0:	ff 25 3a 42 20 00    	jmpq   *0x20423a(%rip)        # 6050e0 <strtoul@GLIBC_2.2.5>
  400ea6:	68 19 00 00 00       	pushq  $0x19
  400eab:	e9 50 fe ff ff       	jmpq   400d00 <.plt>

0000000000400eb0 <gethostname@plt>:
  400eb0:	ff 25 32 42 20 00    	jmpq   *0x204232(%rip)        # 6050e8 <gethostname@GLIBC_2.2.5>
  400eb6:	68 1a 00 00 00       	pushq  $0x1a
  400ebb:	e9 40 fe ff ff       	jmpq   400d00 <.plt>

0000000000400ec0 <sprintf@plt>:
  400ec0:	ff 25 2a 42 20 00    	jmpq   *0x20422a(%rip)        # 6050f0 <sprintf@GLIBC_2.2.5>
  400ec6:	68 1b 00 00 00       	pushq  $0x1b
  400ecb:	e9 30 fe ff ff       	jmpq   400d00 <.plt>

0000000000400ed0 <exit@plt>:
  400ed0:	ff 25 22 42 20 00    	jmpq   *0x204222(%rip)        # 6050f8 <exit@GLIBC_2.2.5>
  400ed6:	68 1c 00 00 00       	pushq  $0x1c
  400edb:	e9 20 fe ff ff       	jmpq   400d00 <.plt>

0000000000400ee0 <connect@plt>:
  400ee0:	ff 25 1a 42 20 00    	jmpq   *0x20421a(%rip)        # 605100 <connect@GLIBC_2.2.5>
  400ee6:	68 1d 00 00 00       	pushq  $0x1d
  400eeb:	e9 10 fe ff ff       	jmpq   400d00 <.plt>

0000000000400ef0 <getc@plt>:
  400ef0:	ff 25 12 42 20 00    	jmpq   *0x204212(%rip)        # 605108 <getc@GLIBC_2.2.5>
  400ef6:	68 1e 00 00 00       	pushq  $0x1e
  400efb:	e9 00 fe ff ff       	jmpq   400d00 <.plt>

0000000000400f00 <socket@plt>:
  400f00:	ff 25 0a 42 20 00    	jmpq   *0x20420a(%rip)        # 605110 <socket@GLIBC_2.2.5>
  400f06:	68 1f 00 00 00       	pushq  $0x1f
  400f0b:	e9 f0 fd ff ff       	jmpq   400d00 <.plt>

Disassembly of section .text:

0000000000400f10 <_start>:
  400f10:	f3 0f 1e fa          	endbr64 
  400f14:	31 ed                	xor    %ebp,%ebp
  400f16:	49 89 d1             	mov    %rdx,%r9
  400f19:	5e                   	pop    %rsi
  400f1a:	48 89 e2             	mov    %rsp,%rdx
  400f1d:	48 83 e4 f0          	and    $0xfffffffffffffff0,%rsp
  400f21:	50                   	push   %rax
  400f22:	54                   	push   %rsp
  400f23:	49 c7 c0 90 2e 40 00 	mov    $0x402e90,%r8
  400f2a:	48 c7 c1 20 2e 40 00 	mov    $0x402e20,%rcx
  400f31:	48 c7 c7 bf 11 40 00 	mov    $0x4011bf,%rdi
  400f38:	ff 15 aa 40 20 00    	callq  *0x2040aa(%rip)        # 604fe8 <__libc_start_main@GLIBC_2.2.5>
  400f3e:	f4                   	hlt    

0000000000400f3f <.annobin_init.c>:
  400f3f:	90                   	nop

0000000000400f40 <_dl_relocate_static_pie>:
  400f40:	f3 0f 1e fa          	endbr64 
  400f44:	c3                   	retq   

0000000000400f45 <.annobin__dl_relocate_static_pie.end>:
  400f45:	66 2e 0f 1f 84 00 00 	nopw   %cs:0x0(%rax,%rax,1)
  400f4c:	00 00 00 
  400f4f:	90                   	nop

0000000000400f50 <deregister_tm_clones>:
  400f50:	48 8d 3d 39 45 20 00 	lea    0x204539(%rip),%rdi        # 605490 <__TMC_END__>
  400f57:	48 8d 05 32 45 20 00 	lea    0x204532(%rip),%rax        # 605490 <__TMC_END__>
  400f5e:	48 39 f8             	cmp    %rdi,%rax
  400f61:	74 15                	je     400f78 <deregister_tm_clones+0x28>
  400f63:	48 8b 05 76 40 20 00 	mov    0x204076(%rip),%rax        # 604fe0 <_ITM_deregisterTMCloneTable>
  400f6a:	48 85 c0             	test   %rax,%rax
  400f6d:	74 09                	je     400f78 <deregister_tm_clones+0x28>
  400f6f:	ff e0                	jmpq   *%rax
  400f71:	0f 1f 80 00 00 00 00 	nopl   0x0(%rax)
  400f78:	c3                   	retq   
  400f79:	0f 1f 80 00 00 00 00 	nopl   0x0(%rax)

0000000000400f80 <register_tm_clones>:
  400f80:	48 8d 3d 09 45 20 00 	lea    0x204509(%rip),%rdi        # 605490 <__TMC_END__>
  400f87:	48 8d 35 02 45 20 00 	lea    0x204502(%rip),%rsi        # 605490 <__TMC_END__>
  400f8e:	48 29 fe             	sub    %rdi,%rsi
  400f91:	48 c1 fe 03          	sar    $0x3,%rsi
  400f95:	48 89 f0             	mov    %rsi,%rax
  400f98:	48 c1 e8 3f          	shr    $0x3f,%rax
  400f9c:	48 01 c6             	add    %rax,%rsi
  400f9f:	48 d1 fe             	sar    %rsi
  400fa2:	74 14                	je     400fb8 <register_tm_clones+0x38>
  400fa4:	48 8b 05 4d 40 20 00 	mov    0x20404d(%rip),%rax        # 604ff8 <_ITM_registerTMCloneTable>
  400fab:	48 85 c0             	test   %rax,%rax
  400fae:	74 08                	je     400fb8 <register_tm_clones+0x38>
  400fb0:	ff e0                	jmpq   *%rax
  400fb2:	66 0f 1f 44 00 00    	nopw   0x0(%rax,%rax,1)
  400fb8:	c3                   	retq   
  400fb9:	0f 1f 80 00 00 00 00 	nopl   0x0(%rax)

0000000000400fc0 <__do_global_dtors_aux>:
  400fc0:	f3 0f 1e fa          	endbr64 
  400fc4:	80 3d fd 44 20 00 00 	cmpb   $0x0,0x2044fd(%rip)        # 6054c8 <completed.7294>
  400fcb:	75 13                	jne    400fe0 <__do_global_dtors_aux+0x20>
  400fcd:	55                   	push   %rbp
  400fce:	48 89 e5             	mov    %rsp,%rbp
  400fd1:	e8 7a ff ff ff       	callq  400f50 <deregister_tm_clones>
  400fd6:	c6 05 eb 44 20 00 01 	movb   $0x1,0x2044eb(%rip)        # 6054c8 <completed.7294>
  400fdd:	5d                   	pop    %rbp
  400fde:	c3                   	retq   
  400fdf:	90                   	nop
  400fe0:	c3                   	retq   
  400fe1:	0f 1f 44 00 00       	nopl   0x0(%rax,%rax,1)
  400fe6:	66 2e 0f 1f 84 00 00 	nopw   %cs:0x0(%rax,%rax,1)
  400fed:	00 00 00 

0000000000400ff0 <frame_dummy>:
  400ff0:	f3 0f 1e fa          	endbr64 
  400ff4:	eb 8a                	jmp    400f80 <register_tm_clones>

0000000000400ff6 <usage>:
  400ff6:	48 83 ec 08          	sub    $0x8,%rsp
  400ffa:	48 89 fe             	mov    %rdi,%rsi
  400ffd:	83 3d 04 45 20 00 00 	cmpl   $0x0,0x204504(%rip)        # 605508 <is_checker>
  401004:	74 41                	je     401047 <usage+0x51>
  401006:	bf c0 2e 40 00       	mov    $0x402ec0,%edi
  40100b:	b8 00 00 00 00       	mov    $0x0,%eax
  401010:	e8 7b fd ff ff       	callq  400d90 <printf@plt>
  401015:	bf f8 2e 40 00       	mov    $0x402ef8,%edi
  40101a:	e8 41 fd ff ff       	callq  400d60 <puts@plt>
  40101f:	bf 70 30 40 00       	mov    $0x403070,%edi
  401024:	e8 37 fd ff ff       	callq  400d60 <puts@plt>
  401029:	bf 20 2f 40 00       	mov    $0x402f20,%edi
  40102e:	e8 2d fd ff ff       	callq  400d60 <puts@plt>
  401033:	bf 8a 30 40 00       	mov    $0x40308a,%edi
  401038:	e8 23 fd ff ff       	callq  400d60 <puts@plt>
  40103d:	bf 00 00 00 00       	mov    $0x0,%edi
  401042:	e8 89 fe ff ff       	callq  400ed0 <exit@plt>
  401047:	bf a6 30 40 00       	mov    $0x4030a6,%edi
  40104c:	b8 00 00 00 00       	mov    $0x0,%eax
  401051:	e8 3a fd ff ff       	callq  400d90 <printf@plt>
  401056:	bf 48 2f 40 00       	mov    $0x402f48,%edi
  40105b:	e8 00 fd ff ff       	callq  400d60 <puts@plt>
  401060:	bf 70 2f 40 00       	mov    $0x402f70,%edi
  401065:	e8 f6 fc ff ff       	callq  400d60 <puts@plt>
  40106a:	bf c4 30 40 00       	mov    $0x4030c4,%edi
  40106f:	e8 ec fc ff ff       	callq  400d60 <puts@plt>
  401074:	eb c7                	jmp    40103d <usage+0x47>

0000000000401076 <initialize_target>:
  401076:	55                   	push   %rbp
  401077:	53                   	push   %rbx
  401078:	48 81 ec 08 21 00 00 	sub    $0x2108,%rsp
  40107f:	89 f5                	mov    %esi,%ebp
  401081:	89 3d 71 44 20 00    	mov    %edi,0x204471(%rip)        # 6054f8 <check_level>
  401087:	8b 3d bb 40 20 00    	mov    0x2040bb(%rip),%edi        # 605148 <target_id>
  40108d:	e8 67 1d 00 00       	callq  402df9 <gencookie>
  401092:	89 05 6c 44 20 00    	mov    %eax,0x20446c(%rip)        # 605504 <cookie>
  401098:	89 c7                	mov    %eax,%edi
  40109a:	e8 5a 1d 00 00       	callq  402df9 <gencookie>
  40109f:	89 05 5b 44 20 00    	mov    %eax,0x20445b(%rip)        # 605500 <authkey>
  4010a5:	8b 05 9d 40 20 00    	mov    0x20409d(%rip),%eax        # 605148 <target_id>
  4010ab:	8d 78 01             	lea    0x1(%rax),%edi
  4010ae:	e8 7d fc ff ff       	callq  400d30 <srandom@plt>
  4010b3:	e8 88 fd ff ff       	callq  400e40 <random@plt>
  4010b8:	89 c7                	mov    %eax,%edi
  4010ba:	e8 b8 02 00 00       	callq  401377 <scramble>
  4010bf:	89 c3                	mov    %eax,%ebx
  4010c1:	85 ed                	test   %ebp,%ebp
  4010c3:	75 3d                	jne    401102 <initialize_target+0x8c>
  4010c5:	b8 00 00 00 00       	mov    $0x0,%eax
  4010ca:	01 d8                	add    %ebx,%eax
  4010cc:	0f b7 c0             	movzwl %ax,%eax
  4010cf:	8d 04 c5 00 01 00 00 	lea    0x100(,%rax,8),%eax
  4010d6:	89 c0                	mov    %eax,%eax
  4010d8:	48 89 05 a1 43 20 00 	mov    %rax,0x2043a1(%rip)        # 605480 <buf_offset>
  4010df:	c6 05 42 50 20 00 72 	movb   $0x72,0x205042(%rip)        # 606128 <target_prefix>
  4010e6:	83 3d 9b 43 20 00 00 	cmpl   $0x0,0x20439b(%rip)        # 605488 <notify>
  4010ed:	74 09                	je     4010f8 <initialize_target+0x82>
  4010ef:	83 3d 12 44 20 00 00 	cmpl   $0x0,0x204412(%rip)        # 605508 <is_checker>
  4010f6:	74 22                	je     40111a <initialize_target+0xa4>
  4010f8:	48 81 c4 08 21 00 00 	add    $0x2108,%rsp
  4010ff:	5b                   	pop    %rbx
  401100:	5d                   	pop    %rbp
  401101:	c3                   	retq   
  401102:	bf 00 00 00 00       	mov    $0x0,%edi
  401107:	e8 24 fd ff ff       	callq  400e30 <time@plt>
  40110c:	89 c7                	mov    %eax,%edi
  40110e:	e8 1d fc ff ff       	callq  400d30 <srandom@plt>
  401113:	e8 28 fd ff ff       	callq  400e40 <random@plt>
  401118:	eb b0                	jmp    4010ca <initialize_target+0x54>
  40111a:	be 00 01 00 00       	mov    $0x100,%esi
  40111f:	48 89 e7             	mov    %rsp,%rdi
  401122:	e8 89 fd ff ff       	callq  400eb0 <gethostname@plt>
  401127:	89 c5                	mov    %eax,%ebp
  401129:	85 c0                	test   %eax,%eax
  40112b:	75 23                	jne    401150 <initialize_target+0xda>
  40112d:	89 c3                	mov    %eax,%ebx
  40112f:	48 63 c3             	movslq %ebx,%rax
  401132:	48 8b 3c c5 60 51 60 	mov    0x605160(,%rax,8),%rdi
  401139:	00 
  40113a:	48 85 ff             	test   %rdi,%rdi
  40113d:	74 2a                	je     401169 <initialize_target+0xf3>
  40113f:	48 89 e6             	mov    %rsp,%rsi
  401142:	e8 c9 fb ff ff       	callq  400d10 <strcasecmp@plt>
  401147:	85 c0                	test   %eax,%eax
  401149:	74 19                	je     401164 <initialize_target+0xee>
  40114b:	83 c3 01             	add    $0x1,%ebx
  40114e:	eb df                	jmp    40112f <initialize_target+0xb9>
  401150:	bf a0 2f 40 00       	mov    $0x402fa0,%edi
  401155:	e8 06 fc ff ff       	callq  400d60 <puts@plt>
  40115a:	bf 08 00 00 00       	mov    $0x8,%edi
  40115f:	e8 6c fd ff ff       	callq  400ed0 <exit@plt>
  401164:	bd 01 00 00 00       	mov    $0x1,%ebp
  401169:	85 ed                	test   %ebp,%ebp
  40116b:	74 36                	je     4011a3 <initialize_target+0x12d>
  40116d:	48 8d bc 24 00 01 00 	lea    0x100(%rsp),%rdi
  401174:	00 
  401175:	e8 09 1a 00 00       	callq  402b83 <init_driver>
  40117a:	85 c0                	test   %eax,%eax
  40117c:	0f 89 76 ff ff ff    	jns    4010f8 <initialize_target+0x82>
  401182:	48 8d b4 24 00 01 00 	lea    0x100(%rsp),%rsi
  401189:	00 
  40118a:	bf 18 30 40 00       	mov    $0x403018,%edi
  40118f:	b8 00 00 00 00       	mov    $0x0,%eax
  401194:	e8 f7 fb ff ff       	callq  400d90 <printf@plt>
  401199:	bf 08 00 00 00       	mov    $0x8,%edi
  40119e:	e8 2d fd ff ff       	callq  400ed0 <exit@plt>
  4011a3:	48 89 e6             	mov    %rsp,%rsi
  4011a6:	bf d8 2f 40 00       	mov    $0x402fd8,%edi
  4011ab:	b8 00 00 00 00       	mov    $0x0,%eax
  4011b0:	e8 db fb ff ff       	callq  400d90 <printf@plt>
  4011b5:	bf 08 00 00 00       	mov    $0x8,%edi
  4011ba:	e8 11 fd ff ff       	callq  400ed0 <exit@plt>

00000000004011bf <main>:
  4011bf:	41 56                	push   %r14
  4011c1:	41 55                	push   %r13
  4011c3:	41 54                	push   %r12
  4011c5:	55                   	push   %rbp
  4011c6:	53                   	push   %rbx
  4011c7:	89 fd                	mov    %edi,%ebp
  4011c9:	48 89 f3             	mov    %rsi,%rbx
  4011cc:	be 88 1f 40 00       	mov    $0x401f88,%esi
  4011d1:	bf 0b 00 00 00       	mov    $0xb,%edi
  4011d6:	e8 05 fc ff ff       	callq  400de0 <signal@plt>
  4011db:	be 3a 1f 40 00       	mov    $0x401f3a,%esi
  4011e0:	bf 07 00 00 00       	mov    $0x7,%edi
  4011e5:	e8 f6 fb ff ff       	callq  400de0 <signal@plt>
  4011ea:	be d6 1f 40 00       	mov    $0x401fd6,%esi
  4011ef:	bf 04 00 00 00       	mov    $0x4,%edi
  4011f4:	e8 e7 fb ff ff       	callq  400de0 <signal@plt>
  4011f9:	83 3d 08 43 20 00 00 	cmpl   $0x0,0x204308(%rip)        # 605508 <is_checker>
  401200:	75 25                	jne    401227 <main+0x68>
  401202:	41 bc e5 30 40 00    	mov    $0x4030e5,%r12d
  401208:	48 8b 05 91 42 20 00 	mov    0x204291(%rip),%rax        # 6054a0 <stdin@@GLIBC_2.2.5>
  40120f:	48 89 05 da 42 20 00 	mov    %rax,0x2042da(%rip)        # 6054f0 <infile>
  401216:	41 bd 00 00 00 00    	mov    $0x0,%r13d
  40121c:	41 be 00 00 00 00    	mov    $0x0,%r14d
  401222:	e9 81 00 00 00       	jmpq   4012a8 <main+0xe9>
  401227:	be 24 20 40 00       	mov    $0x402024,%esi
  40122c:	bf 0e 00 00 00       	mov    $0xe,%edi
  401231:	e8 aa fb ff ff       	callq  400de0 <signal@plt>
  401236:	bf 05 00 00 00       	mov    $0x5,%edi
  40123b:	e8 70 fb ff ff       	callq  400db0 <alarm@plt>
  401240:	41 bc dd 30 40 00    	mov    $0x4030dd,%r12d
  401246:	eb c0                	jmp    401208 <main+0x49>
  401248:	48 8b 3b             	mov    (%rbx),%rdi
  40124b:	e8 a6 fd ff ff       	callq  400ff6 <usage>
  401250:	be 35 3d 40 00       	mov    $0x403d35,%esi
  401255:	48 8b 3d 4c 42 20 00 	mov    0x20424c(%rip),%rdi        # 6054a8 <optarg@@GLIBC_2.2.5>
  40125c:	e8 1f fc ff ff       	callq  400e80 <fopen@plt>
  401261:	48 89 05 88 42 20 00 	mov    %rax,0x204288(%rip)        # 6054f0 <infile>
  401268:	48 85 c0             	test   %rax,%rax
  40126b:	75 3b                	jne    4012a8 <main+0xe9>
  40126d:	48 8b 15 34 42 20 00 	mov    0x204234(%rip),%rdx        # 6054a8 <optarg@@GLIBC_2.2.5>
  401274:	be ea 30 40 00       	mov    $0x4030ea,%esi
  401279:	48 8b 3d 40 42 20 00 	mov    0x204240(%rip),%rdi        # 6054c0 <stderr@@GLIBC_2.2.5>
  401280:	e8 7b fb ff ff       	callq  400e00 <fprintf@plt>
  401285:	b8 01 00 00 00       	mov    $0x1,%eax
  40128a:	e9 c1 00 00 00       	jmpq   401350 <main+0x191>
  40128f:	ba 10 00 00 00       	mov    $0x10,%edx
  401294:	be 00 00 00 00       	mov    $0x0,%esi
  401299:	48 8b 3d 08 42 20 00 	mov    0x204208(%rip),%rdi        # 6054a8 <optarg@@GLIBC_2.2.5>
  4012a0:	e8 fb fb ff ff       	callq  400ea0 <strtoul@plt>
  4012a5:	41 89 c6             	mov    %eax,%r14d
  4012a8:	4c 89 e2             	mov    %r12,%rdx
  4012ab:	48 89 de             	mov    %rbx,%rsi
  4012ae:	89 ef                	mov    %ebp,%edi
  4012b0:	e8 db fb ff ff       	callq  400e90 <getopt@plt>
  4012b5:	3c ff                	cmp    $0xff,%al
  4012b7:	74 52                	je     40130b <main+0x14c>
  4012b9:	0f be f0             	movsbl %al,%esi
  4012bc:	83 e8 61             	sub    $0x61,%eax
  4012bf:	3c 10                	cmp    $0x10,%al
  4012c1:	77 31                	ja     4012f4 <main+0x135>
  4012c3:	0f b6 c0             	movzbl %al,%eax
  4012c6:	ff 24 c5 28 31 40 00 	jmpq   *0x403128(,%rax,8)
  4012cd:	ba 0a 00 00 00       	mov    $0xa,%edx
  4012d2:	be 00 00 00 00       	mov    $0x0,%esi
  4012d7:	48 8b 3d ca 41 20 00 	mov    0x2041ca(%rip),%rdi        # 6054a8 <optarg@@GLIBC_2.2.5>
  4012de:	e8 2d fb ff ff       	callq  400e10 <strtol@plt>
  4012e3:	41 89 c5             	mov    %eax,%r13d
  4012e6:	eb c0                	jmp    4012a8 <main+0xe9>
  4012e8:	c7 05 96 41 20 00 00 	movl   $0x0,0x204196(%rip)        # 605488 <notify>
  4012ef:	00 00 00 
  4012f2:	eb b4                	jmp    4012a8 <main+0xe9>
  4012f4:	bf 07 31 40 00       	mov    $0x403107,%edi
  4012f9:	b8 00 00 00 00       	mov    $0x0,%eax
  4012fe:	e8 8d fa ff ff       	callq  400d90 <printf@plt>
  401303:	48 8b 3b             	mov    (%rbx),%rdi
  401306:	e8 eb fc ff ff       	callq  400ff6 <usage>
  40130b:	be 01 00 00 00       	mov    $0x1,%esi
  401310:	44 89 ef             	mov    %r13d,%edi
  401313:	e8 5e fd ff ff       	callq  401076 <initialize_target>
  401318:	83 3d e9 41 20 00 00 	cmpl   $0x0,0x2041e9(%rip)        # 605508 <is_checker>
  40131f:	74 09                	je     40132a <main+0x16b>
  401321:	44 39 35 d8 41 20 00 	cmp    %r14d,0x2041d8(%rip)        # 605500 <authkey>
  401328:	75 2f                	jne    401359 <main+0x19a>
  40132a:	8b 35 d4 41 20 00    	mov    0x2041d4(%rip),%esi        # 605504 <cookie>
  401330:	bf 1a 31 40 00       	mov    $0x40311a,%edi
  401335:	b8 00 00 00 00       	mov    $0x0,%eax
  40133a:	e8 51 fa ff ff       	callq  400d90 <printf@plt>
  40133f:	48 8b 3d 3a 41 20 00 	mov    0x20413a(%rip),%rdi        # 605480 <buf_offset>
  401346:	e8 27 0d 00 00       	callq  402072 <launch>
  40134b:	b8 00 00 00 00       	mov    $0x0,%eax
  401350:	5b                   	pop    %rbx
  401351:	5d                   	pop    %rbp
  401352:	41 5c                	pop    %r12
  401354:	41 5d                	pop    %r13
  401356:	41 5e                	pop    %r14
  401358:	c3                   	retq   
  401359:	44 89 f6             	mov    %r14d,%esi
  40135c:	bf 40 30 40 00       	mov    $0x403040,%edi
  401361:	b8 00 00 00 00       	mov    $0x0,%eax
  401366:	e8 25 fa ff ff       	callq  400d90 <printf@plt>
  40136b:	b8 00 00 00 00       	mov    $0x0,%eax
  401370:	e8 b3 08 00 00       	callq  401c28 <check_fail>
  401375:	eb b3                	jmp    40132a <main+0x16b>

0000000000401377 <scramble>:
  401377:	b8 00 00 00 00       	mov    $0x0,%eax
  40137c:	83 f8 09             	cmp    $0x9,%eax
  40137f:	77 13                	ja     401394 <scramble+0x1d>
  401381:	69 d0 eb 51 00 00    	imul   $0x51eb,%eax,%edx
  401387:	01 fa                	add    %edi,%edx
  401389:	89 c1                	mov    %eax,%ecx
  40138b:	89 54 8c d0          	mov    %edx,-0x30(%rsp,%rcx,4)
  40138f:	83 c0 01             	add    $0x1,%eax
  401392:	eb e8                	jmp    40137c <scramble+0x5>
  401394:	8b 44 24 e4          	mov    -0x1c(%rsp),%eax
  401398:	69 c0 19 0a 00 00    	imul   $0xa19,%eax,%eax
  40139e:	89 44 24 e4          	mov    %eax,-0x1c(%rsp)
  4013a2:	8b 44 24 d0          	mov    -0x30(%rsp),%eax
  4013a6:	69 c0 2e 4f 00 00    	imul   $0x4f2e,%eax,%eax
  4013ac:	89 44 24 d0          	mov    %eax,-0x30(%rsp)
  4013b0:	8b 44 24 d0          	mov    -0x30(%rsp),%eax
  4013b4:	69 c0 9c d7 00 00    	imul   $0xd79c,%eax,%eax
  4013ba:	89 44 24 d0          	mov    %eax,-0x30(%rsp)
  4013be:	8b 44 24 d4          	mov    -0x2c(%rsp),%eax
  4013c2:	69 c0 ec fc 00 00    	imul   $0xfcec,%eax,%eax
  4013c8:	89 44 24 d4          	mov    %eax,-0x2c(%rsp)
  4013cc:	8b 44 24 d0          	mov    -0x30(%rsp),%eax
  4013d0:	69 c0 c0 54 00 00    	imul   $0x54c0,%eax,%eax
  4013d6:	89 44 24 d0          	mov    %eax,-0x30(%rsp)
  4013da:	8b 44 24 f4          	mov    -0xc(%rsp),%eax
  4013de:	69 c0 07 b0 00 00    	imul   $0xb007,%eax,%eax
  4013e4:	89 44 24 f4          	mov    %eax,-0xc(%rsp)
  4013e8:	8b 44 24 d0          	mov    -0x30(%rsp),%eax
  4013ec:	69 c0 5a 3d 00 00    	imul   $0x3d5a,%eax,%eax
  4013f2:	89 44 24 d0          	mov    %eax,-0x30(%rsp)
  4013f6:	8b 44 24 d0          	mov    -0x30(%rsp),%eax
  4013fa:	69 c0 49 2b 00 00    	imul   $0x2b49,%eax,%eax
  401400:	89 44 24 d0          	mov    %eax,-0x30(%rsp)
  401404:	8b 44 24 f0          	mov    -0x10(%rsp),%eax
  401408:	69 c0 12 ec 00 00    	imul   $0xec12,%eax,%eax
  40140e:	89 44 24 f0          	mov    %eax,-0x10(%rsp)
  401412:	8b 44 24 d4          	mov    -0x2c(%rsp),%eax
  401416:	69 c0 e7 ff 00 00    	imul   $0xffe7,%eax,%eax
  40141c:	89 44 24 d4          	mov    %eax,-0x2c(%rsp)
  401420:	8b 44 24 e0          	mov    -0x20(%rsp),%eax
  401424:	69 c0 13 7a 00 00    	imul   $0x7a13,%eax,%eax
  40142a:	89 44 24 e0          	mov    %eax,-0x20(%rsp)
  40142e:	8b 44 24 dc          	mov    -0x24(%rsp),%eax
  401432:	69 c0 2f b1 00 00    	imul   $0xb12f,%eax,%eax
  401438:	89 44 24 dc          	mov    %eax,-0x24(%rsp)
  40143c:	8b 44 24 e8          	mov    -0x18(%rsp),%eax
  401440:	69 c0 ad 95 00 00    	imul   $0x95ad,%eax,%eax
  401446:	89 44 24 e8          	mov    %eax,-0x18(%rsp)
  40144a:	8b 44 24 f0          	mov    -0x10(%rsp),%eax
  40144e:	69 c0 de 9b 00 00    	imul   $0x9bde,%eax,%eax
  401454:	89 44 24 f0          	mov    %eax,-0x10(%rsp)
  401458:	8b 44 24 e4          	mov    -0x1c(%rsp),%eax
  40145c:	69 c0 8f ca 00 00    	imul   $0xca8f,%eax,%eax
  401462:	89 44 24 e4          	mov    %eax,-0x1c(%rsp)
  401466:	8b 44 24 d8          	mov    -0x28(%rsp),%eax
  40146a:	69 c0 e2 e3 00 00    	imul   $0xe3e2,%eax,%eax
  401470:	89 44 24 d8          	mov    %eax,-0x28(%rsp)
  401474:	8b 44 24 d0          	mov    -0x30(%rsp),%eax
  401478:	69 c0 0e d0 00 00    	imul   $0xd00e,%eax,%eax
  40147e:	89 44 24 d0          	mov    %eax,-0x30(%rsp)
  401482:	8b 44 24 e0          	mov    -0x20(%rsp),%eax
  401486:	69 c0 90 fa 00 00    	imul   $0xfa90,%eax,%eax
  40148c:	89 44 24 e0          	mov    %eax,-0x20(%rsp)
  401490:	8b 44 24 e0          	mov    -0x20(%rsp),%eax
  401494:	69 c0 a0 20 00 00    	imul   $0x20a0,%eax,%eax
  40149a:	89 44 24 e0          	mov    %eax,-0x20(%rsp)
  40149e:	8b 44 24 e0          	mov    -0x20(%rsp),%eax
  4014a2:	69 c0 30 89 00 00    	imul   $0x8930,%eax,%eax
  4014a8:	89 44 24 e0          	mov    %eax,-0x20(%rsp)
  4014ac:	8b 44 24 d4          	mov    -0x2c(%rsp),%eax
  4014b0:	69 c0 52 5c 00 00    	imul   $0x5c52,%eax,%eax
  4014b6:	89 44 24 d4          	mov    %eax,-0x2c(%rsp)
  4014ba:	8b 44 24 dc          	mov    -0x24(%rsp),%eax
  4014be:	69 c0 30 65 00 00    	imul   $0x6530,%eax,%eax
  4014c4:	89 44 24 dc          	mov    %eax,-0x24(%rsp)
  4014c8:	8b 44 24 dc          	mov    -0x24(%rsp),%eax
  4014cc:	69 c0 8c 7a 00 00    	imul   $0x7a8c,%eax,%eax
  4014d2:	89 44 24 dc          	mov    %eax,-0x24(%rsp)
  4014d6:	8b 44 24 e8          	mov    -0x18(%rsp),%eax
  4014da:	69 c0 ed 9d 00 00    	imul   $0x9ded,%eax,%eax
  4014e0:	89 44 24 e8          	mov    %eax,-0x18(%rsp)
  4014e4:	8b 44 24 d8          	mov    -0x28(%rsp),%eax
  4014e8:	69 c0 9d 64 00 00    	imul   $0x649d,%eax,%eax
  4014ee:	89 44 24 d8          	mov    %eax,-0x28(%rsp)
  4014f2:	8b 44 24 d4          	mov    -0x2c(%rsp),%eax
  4014f6:	69 c0 f1 a1 00 00    	imul   $0xa1f1,%eax,%eax
  4014fc:	89 44 24 d4          	mov    %eax,-0x2c(%rsp)
  401500:	8b 44 24 d4          	mov    -0x2c(%rsp),%eax
  401504:	69 c0 f2 df 00 00    	imul   $0xdff2,%eax,%eax
  40150a:	89 44 24 d4          	mov    %eax,-0x2c(%rsp)
  40150e:	8b 44 24 ec          	mov    -0x14(%rsp),%eax
  401512:	69 c0 00 4e 00 00    	imul   $0x4e00,%eax,%eax
  401518:	89 44 24 ec          	mov    %eax,-0x14(%rsp)
  40151c:	8b 44 24 e0          	mov    -0x20(%rsp),%eax
  401520:	69 c0 35 8f 00 00    	imul   $0x8f35,%eax,%eax
  401526:	89 44 24 e0          	mov    %eax,-0x20(%rsp)
  40152a:	8b 44 24 d4          	mov    -0x2c(%rsp),%eax
  40152e:	69 c0 96 07 00 00    	imul   $0x796,%eax,%eax
  401534:	89 44 24 d4          	mov    %eax,-0x2c(%rsp)
  401538:	8b 44 24 e8          	mov    -0x18(%rsp),%eax
  40153c:	69 c0 c7 74 00 00    	imul   $0x74c7,%eax,%eax
  401542:	89 44 24 e8          	mov    %eax,-0x18(%rsp)
  401546:	8b 44 24 d8          	mov    -0x28(%rsp),%eax
  40154a:	69 c0 6d 2e 00 00    	imul   $0x2e6d,%eax,%eax
  401550:	89 44 24 d8          	mov    %eax,-0x28(%rsp)
  401554:	8b 44 24 e8          	mov    -0x18(%rsp),%eax
  401558:	69 c0 88 1e 00 00    	imul   $0x1e88,%eax,%eax
  40155e:	89 44 24 e8          	mov    %eax,-0x18(%rsp)
  401562:	8b 44 24 d0          	mov    -0x30(%rsp),%eax
  401566:	69 c0 80 ec 00 00    	imul   $0xec80,%eax,%eax
  40156c:	89 44 24 d0          	mov    %eax,-0x30(%rsp)
  401570:	8b 44 24 e8          	mov    -0x18(%rsp),%eax
  401574:	69 c0 7a 20 00 00    	imul   $0x207a,%eax,%eax
  40157a:	89 44 24 e8          	mov    %eax,-0x18(%rsp)
  40157e:	8b 44 24 f4          	mov    -0xc(%rsp),%eax
  401582:	69 c0 88 b4 00 00    	imul   $0xb488,%eax,%eax
  401588:	89 44 24 f4          	mov    %eax,-0xc(%rsp)
  40158c:	8b 44 24 d8          	mov    -0x28(%rsp),%eax
  401590:	69 c0 e8 ae 00 00    	imul   $0xaee8,%eax,%eax
  401596:	89 44 24 d8          	mov    %eax,-0x28(%rsp)
  40159a:	8b 44 24 e0          	mov    -0x20(%rsp),%eax
  40159e:	69 c0 7a 16 00 00    	imul   $0x167a,%eax,%eax
  4015a4:	89 44 24 e0          	mov    %eax,-0x20(%rsp)
  4015a8:	8b 44 24 e4          	mov    -0x1c(%rsp),%eax
  4015ac:	69 c0 31 aa 00 00    	imul   $0xaa31,%eax,%eax
  4015b2:	89 44 24 e4          	mov    %eax,-0x1c(%rsp)
  4015b6:	8b 44 24 d4          	mov    -0x2c(%rsp),%eax
  4015ba:	69 c0 12 90 00 00    	imul   $0x9012,%eax,%eax
  4015c0:	89 44 24 d4          	mov    %eax,-0x2c(%rsp)
  4015c4:	8b 44 24 f0          	mov    -0x10(%rsp),%eax
  4015c8:	69 c0 3c 52 00 00    	imul   $0x523c,%eax,%eax
  4015ce:	89 44 24 f0          	mov    %eax,-0x10(%rsp)
  4015d2:	8b 44 24 f0          	mov    -0x10(%rsp),%eax
  4015d6:	69 c0 80 ed 00 00    	imul   $0xed80,%eax,%eax
  4015dc:	89 44 24 f0          	mov    %eax,-0x10(%rsp)
  4015e0:	8b 44 24 d0          	mov    -0x30(%rsp),%eax
  4015e4:	69 c0 25 85 00 00    	imul   $0x8525,%eax,%eax
  4015ea:	89 44 24 d0          	mov    %eax,-0x30(%rsp)
  4015ee:	8b 44 24 d0          	mov    -0x30(%rsp),%eax
  4015f2:	69 c0 ce a7 00 00    	imul   $0xa7ce,%eax,%eax
  4015f8:	89 44 24 d0          	mov    %eax,-0x30(%rsp)
  4015fc:	8b 44 24 e0          	mov    -0x20(%rsp),%eax
  401600:	69 c0 5e 25 00 00    	imul   $0x255e,%eax,%eax
  401606:	89 44 24 e0          	mov    %eax,-0x20(%rsp)
  40160a:	8b 44 24 f0          	mov    -0x10(%rsp),%eax
  40160e:	69 c0 1f 6e 00 00    	imul   $0x6e1f,%eax,%eax
  401614:	89 44 24 f0          	mov    %eax,-0x10(%rsp)
  401618:	8b 44 24 e4          	mov    -0x1c(%rsp),%eax
  40161c:	69 c0 dc 9a 00 00    	imul   $0x9adc,%eax,%eax
  401622:	89 44 24 e4          	mov    %eax,-0x1c(%rsp)
  401626:	8b 44 24 d0          	mov    -0x30(%rsp),%eax
  40162a:	69 c0 fc de 00 00    	imul   $0xdefc,%eax,%eax
  401630:	89 44 24 d0          	mov    %eax,-0x30(%rsp)
  401634:	8b 44 24 d0          	mov    -0x30(%rsp),%eax
  401638:	69 c0 8b c5 00 00    	imul   $0xc58b,%eax,%eax
  40163e:	89 44 24 d0          	mov    %eax,-0x30(%rsp)
  401642:	8b 44 24 e4          	mov    -0x1c(%rsp),%eax
  401646:	69 c0 8c f8 00 00    	imul   $0xf88c,%eax,%eax
  40164c:	89 44 24 e4          	mov    %eax,-0x1c(%rsp)
  401650:	8b 44 24 f0          	mov    -0x10(%rsp),%eax
  401654:	69 c0 2d 41 00 00    	imul   $0x412d,%eax,%eax
  40165a:	89 44 24 f0          	mov    %eax,-0x10(%rsp)
  40165e:	8b 44 24 ec          	mov    -0x14(%rsp),%eax
  401662:	69 c0 d2 62 00 00    	imul   $0x62d2,%eax,%eax
  401668:	89 44 24 ec          	mov    %eax,-0x14(%rsp)
  40166c:	8b 44 24 f0          	mov    -0x10(%rsp),%eax
  401670:	69 c0 cd c6 00 00    	imul   $0xc6cd,%eax,%eax
  401676:	89 44 24 f0          	mov    %eax,-0x10(%rsp)
  40167a:	8b 44 24 d0          	mov    -0x30(%rsp),%eax
  40167e:	69 c0 89 19 00 00    	imul   $0x1989,%eax,%eax
  401684:	89 44 24 d0          	mov    %eax,-0x30(%rsp)
  401688:	8b 44 24 dc          	mov    -0x24(%rsp),%eax
  40168c:	69 c0 b4 2d 00 00    	imul   $0x2db4,%eax,%eax
  401692:	89 44 24 dc          	mov    %eax,-0x24(%rsp)
  401696:	8b 44 24 e8          	mov    -0x18(%rsp),%eax
  40169a:	69 c0 cd 7f 00 00    	imul   $0x7fcd,%eax,%eax
  4016a0:	89 44 24 e8          	mov    %eax,-0x18(%rsp)
  4016a4:	8b 44 24 e4          	mov    -0x1c(%rsp),%eax
  4016a8:	69 c0 9f db 00 00    	imul   $0xdb9f,%eax,%eax
  4016ae:	89 44 24 e4          	mov    %eax,-0x1c(%rsp)
  4016b2:	8b 44 24 e0          	mov    -0x20(%rsp),%eax
  4016b6:	69 c0 1e b2 00 00    	imul   $0xb21e,%eax,%eax
  4016bc:	89 44 24 e0          	mov    %eax,-0x20(%rsp)
  4016c0:	8b 44 24 d0          	mov    -0x30(%rsp),%eax
  4016c4:	69 c0 cd a8 00 00    	imul   $0xa8cd,%eax,%eax
  4016ca:	89 44 24 d0          	mov    %eax,-0x30(%rsp)
  4016ce:	8b 44 24 e0          	mov    -0x20(%rsp),%eax
  4016d2:	69 c0 1f 75 00 00    	imul   $0x751f,%eax,%eax
  4016d8:	89 44 24 e0          	mov    %eax,-0x20(%rsp)
  4016dc:	8b 44 24 f0          	mov    -0x10(%rsp),%eax
  4016e0:	69 c0 50 09 00 00    	imul   $0x950,%eax,%eax
  4016e6:	89 44 24 f0          	mov    %eax,-0x10(%rsp)
  4016ea:	8b 44 24 e8          	mov    -0x18(%rsp),%eax
  4016ee:	69 c0 52 68 00 00    	imul   $0x6852,%eax,%eax
  4016f4:	89 44 24 e8          	mov    %eax,-0x18(%rsp)
  4016f8:	8b 44 24 e8          	mov    -0x18(%rsp),%eax
  4016fc:	69 c0 cb 7f 00 00    	imul   $0x7fcb,%eax,%eax
  401702:	89 44 24 e8          	mov    %eax,-0x18(%rsp)
  401706:	8b 44 24 d0          	mov    -0x30(%rsp),%eax
  40170a:	69 c0 90 5d 00 00    	imul   $0x5d90,%eax,%eax
  401710:	89 44 24 d0          	mov    %eax,-0x30(%rsp)
  401714:	8b 44 24 d0          	mov    -0x30(%rsp),%eax
  401718:	69 c0 ca 12 00 00    	imul   $0x12ca,%eax,%eax
  40171e:	89 44 24 d0          	mov    %eax,-0x30(%rsp)
  401722:	8b 44 24 e4          	mov    -0x1c(%rsp),%eax
  401726:	69 c0 5c 2b 00 00    	imul   $0x2b5c,%eax,%eax
  40172c:	89 44 24 e4          	mov    %eax,-0x1c(%rsp)
  401730:	8b 44 24 e0          	mov    -0x20(%rsp),%eax
  401734:	69 c0 31 03 00 00    	imul   $0x331,%eax,%eax
  40173a:	89 44 24 e0          	mov    %eax,-0x20(%rsp)
  40173e:	8b 44 24 d8          	mov    -0x28(%rsp),%eax
  401742:	69 c0 0c 44 00 00    	imul   $0x440c,%eax,%eax
  401748:	89 44 24 d8          	mov    %eax,-0x28(%rsp)
  40174c:	8b 44 24 ec          	mov    -0x14(%rsp),%eax
  401750:	69 c0 7b 07 00 00    	imul   $0x77b,%eax,%eax
  401756:	89 44 24 ec          	mov    %eax,-0x14(%rsp)
  40175a:	8b 44 24 f4          	mov    -0xc(%rsp),%eax
  40175e:	69 c0 fc 3a 00 00    	imul   $0x3afc,%eax,%eax
  401764:	89 44 24 f4          	mov    %eax,-0xc(%rsp)
  401768:	8b 44 24 e0          	mov    -0x20(%rsp),%eax
  40176c:	69 c0 31 07 00 00    	imul   $0x731,%eax,%eax
  401772:	89 44 24 e0          	mov    %eax,-0x20(%rsp)
  401776:	8b 44 24 e8          	mov    -0x18(%rsp),%eax
  40177a:	69 c0 1f b5 00 00    	imul   $0xb51f,%eax,%eax
  401780:	89 44 24 e8          	mov    %eax,-0x18(%rsp)
  401784:	8b 44 24 f4          	mov    -0xc(%rsp),%eax
  401788:	69 c0 17 28 00 00    	imul   $0x2817,%eax,%eax
  40178e:	89 44 24 f4          	mov    %eax,-0xc(%rsp)
  401792:	8b 44 24 ec          	mov    -0x14(%rsp),%eax
  401796:	69 c0 95 43 00 00    	imul   $0x4395,%eax,%eax
  40179c:	89 44 24 ec          	mov    %eax,-0x14(%rsp)
  4017a0:	8b 44 24 d0          	mov    -0x30(%rsp),%eax
  4017a4:	69 c0 2a c1 00 00    	imul   $0xc12a,%eax,%eax
  4017aa:	89 44 24 d0          	mov    %eax,-0x30(%rsp)
  4017ae:	8b 44 24 f0          	mov    -0x10(%rsp),%eax
  4017b2:	69 c0 11 9f 00 00    	imul   $0x9f11,%eax,%eax
  4017b8:	89 44 24 f0          	mov    %eax,-0x10(%rsp)
  4017bc:	8b 44 24 ec          	mov    -0x14(%rsp),%eax
  4017c0:	69 c0 f2 9b 00 00    	imul   $0x9bf2,%eax,%eax
  4017c6:	89 44 24 ec          	mov    %eax,-0x14(%rsp)
  4017ca:	8b 44 24 f0          	mov    -0x10(%rsp),%eax
  4017ce:	69 c0 a7 6e 00 00    	imul   $0x6ea7,%eax,%eax
  4017d4:	89 44 24 f0          	mov    %eax,-0x10(%rsp)
  4017d8:	8b 44 24 e4          	mov    -0x1c(%rsp),%eax
  4017dc:	69 c0 b1 4e 00 00    	imul   $0x4eb1,%eax,%eax
  4017e2:	89 44 24 e4          	mov    %eax,-0x1c(%rsp)
  4017e6:	8b 44 24 d4          	mov    -0x2c(%rsp),%eax
  4017ea:	69 c0 14 61 00 00    	imul   $0x6114,%eax,%eax
  4017f0:	89 44 24 d4          	mov    %eax,-0x2c(%rsp)
  4017f4:	8b 44 24 f0          	mov    -0x10(%rsp),%eax
  4017f8:	69 c0 54 22 00 00    	imul   $0x2254,%eax,%eax
  4017fe:	89 44 24 f0          	mov    %eax,-0x10(%rsp)
  401802:	8b 44 24 e4          	mov    -0x1c(%rsp),%eax
  401806:	69 c0 73 b5 00 00    	imul   $0xb573,%eax,%eax
  40180c:	89 44 24 e4          	mov    %eax,-0x1c(%rsp)
  401810:	8b 44 24 e4          	mov    -0x1c(%rsp),%eax
  401814:	69 c0 9f 1a 00 00    	imul   $0x1a9f,%eax,%eax
  40181a:	89 44 24 e4          	mov    %eax,-0x1c(%rsp)
  40181e:	8b 44 24 f0          	mov    -0x10(%rsp),%eax
  401822:	69 c0 83 ef 00 00    	imul   $0xef83,%eax,%eax
  401828:	89 44 24 f0          	mov    %eax,-0x10(%rsp)
  40182c:	8b 44 24 dc          	mov    -0x24(%rsp),%eax
  401830:	69 c0 15 57 00 00    	imul   $0x5715,%eax,%eax
  401836:	89 44 24 dc          	mov    %eax,-0x24(%rsp)
  40183a:	8b 44 24 f0          	mov    -0x10(%rsp),%eax
  40183e:	69 c0 49 57 00 00    	imul   $0x5749,%eax,%eax
  401844:	89 44 24 f0          	mov    %eax,-0x10(%rsp)
  401848:	8b 44 24 e0          	mov    -0x20(%rsp),%eax
  40184c:	69 c0 49 e5 00 00    	imul   $0xe549,%eax,%eax
  401852:	89 44 24 e0          	mov    %eax,-0x20(%rsp)
  401856:	8b 44 24 f4          	mov    -0xc(%rsp),%eax
  40185a:	69 c0 16 41 00 00    	imul   $0x4116,%eax,%eax
  401860:	89 44 24 f4          	mov    %eax,-0xc(%rsp)
  401864:	8b 44 24 f4          	mov    -0xc(%rsp),%eax
  401868:	69 c0 a5 73 00 00    	imul   $0x73a5,%eax,%eax
  40186e:	89 44 24 f4          	mov    %eax,-0xc(%rsp)
  401872:	8b 44 24 f4          	mov    -0xc(%rsp),%eax
  401876:	69 c0 46 de 00 00    	imul   $0xde46,%eax,%eax
  40187c:	89 44 24 f4          	mov    %eax,-0xc(%rsp)
  401880:	8b 44 24 dc          	mov    -0x24(%rsp),%eax
  401884:	69 c0 5f 3d 00 00    	imul   $0x3d5f,%eax,%eax
  40188a:	89 44 24 dc          	mov    %eax,-0x24(%rsp)
  40188e:	8b 44 24 d8          	mov    -0x28(%rsp),%eax
  401892:	69 c0 4a ff 00 00    	imul   $0xff4a,%eax,%eax
  401898:	89 44 24 d8          	mov    %eax,-0x28(%rsp)
  40189c:	8b 44 24 e4          	mov    -0x1c(%rsp),%eax
  4018a0:	69 c0 ba 84 00 00    	imul   $0x84ba,%eax,%eax
  4018a6:	89 44 24 e4          	mov    %eax,-0x1c(%rsp)
  4018aa:	8b 44 24 e4          	mov    -0x1c(%rsp),%eax
  4018ae:	69 c0 10 f5 00 00    	imul   $0xf510,%eax,%eax
  4018b4:	89 44 24 e4          	mov    %eax,-0x1c(%rsp)
  4018b8:	8b 44 24 d8          	mov    -0x28(%rsp),%eax
  4018bc:	69 c0 28 3a 00 00    	imul   $0x3a28,%eax,%eax
  4018c2:	89 44 24 d8          	mov    %eax,-0x28(%rsp)
  4018c6:	8b 44 24 f0          	mov    -0x10(%rsp),%eax
  4018ca:	69 c0 e6 34 00 00    	imul   $0x34e6,%eax,%eax
  4018d0:	89 44 24 f0          	mov    %eax,-0x10(%rsp)
  4018d4:	8b 44 24 f4          	mov    -0xc(%rsp),%eax
  4018d8:	69 c0 95 e2 00 00    	imul   $0xe295,%eax,%eax
  4018de:	89 44 24 f4          	mov    %eax,-0xc(%rsp)
  4018e2:	ba 00 00 00 00       	mov    $0x0,%edx
  4018e7:	b8 00 00 00 00       	mov    $0x0,%eax
  4018ec:	83 fa 09             	cmp    $0x9,%edx
  4018ef:	77 0d                	ja     4018fe <scramble+0x587>
  4018f1:	89 d1                	mov    %edx,%ecx
  4018f3:	8b 4c 8c d0          	mov    -0x30(%rsp,%rcx,4),%ecx
  4018f7:	01 c8                	add    %ecx,%eax
  4018f9:	83 c2 01             	add    $0x1,%edx
  4018fc:	eb ee                	jmp    4018ec <scramble+0x575>
  4018fe:	c3                   	retq   

00000000004018ff <getbuf>:
  4018ff:	48 83 ec 28          	sub    $0x28,%rsp
  401903:	48 89 e7             	mov    %rsp,%rdi
  401906:	e8 4c 03 00 00       	callq  401c57 <Gets>
  40190b:	b8 01 00 00 00       	mov    $0x1,%eax
  401910:	48 83 c4 28          	add    $0x28,%rsp
  401914:	c3                   	retq   

0000000000401915 <touch1>:
  401915:	48 83 ec 08          	sub    $0x8,%rsp
  401919:	c7 05 d9 3b 20 00 01 	movl   $0x1,0x203bd9(%rip)        # 6054fc <vlevel>
  401920:	00 00 00 
  401923:	bf 87 3b 40 00       	mov    $0x403b87,%edi
  401928:	e8 33 f4 ff ff       	callq  400d60 <puts@plt>
  40192d:	bf 01 00 00 00       	mov    $0x1,%edi
  401932:	e8 13 05 00 00       	callq  401e4a <validate>
  401937:	bf 00 00 00 00       	mov    $0x0,%edi
  40193c:	e8 8f f5 ff ff       	callq  400ed0 <exit@plt>

0000000000401941 <touch2>:
  401941:	48 83 ec 08          	sub    $0x8,%rsp
  401945:	89 fe                	mov    %edi,%esi
  401947:	c7 05 ab 3b 20 00 02 	movl   $0x2,0x203bab(%rip)        # 6054fc <vlevel>
  40194e:	00 00 00 
  401951:	39 3d ad 3b 20 00    	cmp    %edi,0x203bad(%rip)        # 605504 <cookie>
  401957:	74 23                	je     40197c <touch2+0x3b>
  401959:	bf d8 3b 40 00       	mov    $0x403bd8,%edi
  40195e:	b8 00 00 00 00       	mov    $0x0,%eax
  401963:	e8 28 f4 ff ff       	callq  400d90 <printf@plt>
  401968:	bf 02 00 00 00       	mov    $0x2,%edi
  40196d:	e8 a0 05 00 00       	callq  401f12 <fail>
  401972:	bf 00 00 00 00       	mov    $0x0,%edi
  401977:	e8 54 f5 ff ff       	callq  400ed0 <exit@plt>
  40197c:	bf b0 3b 40 00       	mov    $0x403bb0,%edi
  401981:	b8 00 00 00 00       	mov    $0x0,%eax
  401986:	e8 05 f4 ff ff       	callq  400d90 <printf@plt>
  40198b:	bf 02 00 00 00       	mov    $0x2,%edi
  401990:	e8 b5 04 00 00       	callq  401e4a <validate>
  401995:	eb db                	jmp    401972 <touch2+0x31>

0000000000401997 <hexmatch>:
  401997:	41 54                	push   %r12
  401999:	55                   	push   %rbp
  40199a:	53                   	push   %rbx
  40199b:	48 83 ec 70          	sub    $0x70,%rsp
  40199f:	89 fd                	mov    %edi,%ebp
  4019a1:	48 89 f3             	mov    %rsi,%rbx
  4019a4:	e8 97 f4 ff ff       	callq  400e40 <random@plt>
  4019a9:	48 89 c1             	mov    %rax,%rcx
  4019ac:	48 ba 0b d7 a3 70 3d 	movabs $0xa3d70a3d70a3d70b,%rdx
  4019b3:	0a d7 a3 
  4019b6:	48 f7 ea             	imul   %rdx
  4019b9:	48 01 ca             	add    %rcx,%rdx
  4019bc:	48 c1 fa 06          	sar    $0x6,%rdx
  4019c0:	48 89 c8             	mov    %rcx,%rax
  4019c3:	48 c1 f8 3f          	sar    $0x3f,%rax
  4019c7:	48 29 c2             	sub    %rax,%rdx
  4019ca:	48 8d 04 92          	lea    (%rdx,%rdx,4),%rax
  4019ce:	48 8d 14 80          	lea    (%rax,%rax,4),%rdx
  4019d2:	48 8d 04 95 00 00 00 	lea    0x0(,%rdx,4),%rax
  4019d9:	00 
  4019da:	48 29 c1             	sub    %rax,%rcx
  4019dd:	4c 8d 24 0c          	lea    (%rsp,%rcx,1),%r12
  4019e1:	89 ea                	mov    %ebp,%edx
  4019e3:	be a4 3b 40 00       	mov    $0x403ba4,%esi
  4019e8:	4c 89 e7             	mov    %r12,%rdi
  4019eb:	b8 00 00 00 00       	mov    $0x0,%eax
  4019f0:	e8 cb f4 ff ff       	callq  400ec0 <sprintf@plt>
  4019f5:	ba 09 00 00 00       	mov    $0x9,%edx
  4019fa:	4c 89 e6             	mov    %r12,%rsi
  4019fd:	48 89 df             	mov    %rbx,%rdi
  401a00:	e8 3b f3 ff ff       	callq  400d40 <strncmp@plt>
  401a05:	85 c0                	test   %eax,%eax
  401a07:	0f 94 c0             	sete   %al
  401a0a:	0f b6 c0             	movzbl %al,%eax
  401a0d:	48 83 c4 70          	add    $0x70,%rsp
  401a11:	5b                   	pop    %rbx
  401a12:	5d                   	pop    %rbp
  401a13:	41 5c                	pop    %r12
  401a15:	c3                   	retq   

0000000000401a16 <touch3>:
  401a16:	53                   	push   %rbx
  401a17:	48 89 fb             	mov    %rdi,%rbx
  401a1a:	c7 05 d8 3a 20 00 03 	movl   $0x3,0x203ad8(%rip)        # 6054fc <vlevel>
  401a21:	00 00 00 
  401a24:	48 89 fe             	mov    %rdi,%rsi
  401a27:	8b 3d d7 3a 20 00    	mov    0x203ad7(%rip),%edi        # 605504 <cookie>
  401a2d:	e8 65 ff ff ff       	callq  401997 <hexmatch>
  401a32:	85 c0                	test   %eax,%eax
  401a34:	74 26                	je     401a5c <touch3+0x46>
  401a36:	48 89 de             	mov    %rbx,%rsi
  401a39:	bf 00 3c 40 00       	mov    $0x403c00,%edi
  401a3e:	b8 00 00 00 00       	mov    $0x0,%eax
  401a43:	e8 48 f3 ff ff       	callq  400d90 <printf@plt>
  401a48:	bf 03 00 00 00       	mov    $0x3,%edi
  401a4d:	e8 f8 03 00 00       	callq  401e4a <validate>
  401a52:	bf 00 00 00 00       	mov    $0x0,%edi
  401a57:	e8 74 f4 ff ff       	callq  400ed0 <exit@plt>
  401a5c:	48 89 de             	mov    %rbx,%rsi
  401a5f:	bf 28 3c 40 00       	mov    $0x403c28,%edi
  401a64:	b8 00 00 00 00       	mov    $0x0,%eax
  401a69:	e8 22 f3 ff ff       	callq  400d90 <printf@plt>
  401a6e:	bf 03 00 00 00       	mov    $0x3,%edi
  401a73:	e8 9a 04 00 00       	callq  401f12 <fail>
  401a78:	eb d8                	jmp    401a52 <touch3+0x3c>

0000000000401a7a <test>:
  401a7a:	48 83 ec 08          	sub    $0x8,%rsp
  401a7e:	b8 00 00 00 00       	mov    $0x0,%eax
  401a83:	e8 77 fe ff ff       	callq  4018ff <getbuf>
  401a88:	89 c6                	mov    %eax,%esi
  401a8a:	bf 50 3c 40 00       	mov    $0x403c50,%edi
  401a8f:	b8 00 00 00 00       	mov    $0x0,%eax
  401a94:	e8 f7 f2 ff ff       	callq  400d90 <printf@plt>
  401a99:	48 83 c4 08          	add    $0x8,%rsp
  401a9d:	c3                   	retq   

0000000000401a9e <start_farm>:
  401a9e:	b8 01 00 00 00       	mov    $0x1,%eax
  401aa3:	c3                   	retq   

0000000000401aa4 <setval_156>:
  401aa4:	c7 07 48 89 c7 92    	movl   $0x92c78948,(%rdi)
  401aaa:	c3                   	retq   

0000000000401aab <getval_113>:
  401aab:	b8 58 90 90 90       	mov    $0x90909058,%eax
  401ab0:	c3                   	retq   

0000000000401ab1 <addval_409>:
  401ab1:	8d 87 48 89 c7 c7    	lea    -0x383876b8(%rdi),%eax
  401ab7:	c3                   	retq   

0000000000401ab8 <addval_436>:
  401ab8:	8d 87 ce 97 58 c7    	lea    -0x38a76832(%rdi),%eax
  401abe:	c3                   	retq   

0000000000401abf <addval_364>:
  401abf:	8d 87 48 89 c7 c3    	lea    -0x3c3876b8(%rdi),%eax
  401ac5:	c3                   	retq   

0000000000401ac6 <setval_190>:
  401ac6:	c7 07 48 89 c7 c3    	movl   $0xc3c78948,(%rdi)
  401acc:	c3                   	retq   

0000000000401acd <setval_111>:
  401acd:	c7 07 56 51 b7 58    	movl   $0x58b75156,(%rdi)
  401ad3:	c3                   	retq   

0000000000401ad4 <addval_367>:
  401ad4:	8d 87 b2 13 fd 50    	lea    0x50fd13b2(%rdi),%eax
  401ada:	c3                   	retq   

0000000000401adb <mid_farm>:
  401adb:	b8 01 00 00 00       	mov    $0x1,%eax
  401ae0:	c3                   	retq   

0000000000401ae1 <add_xy>:
  401ae1:	48 8d 04 37          	lea    (%rdi,%rsi,1),%rax
  401ae5:	c3                   	retq   

0000000000401ae6 <setval_429>:
  401ae6:	c7 07 89 d6 90 90    	movl   $0x9090d689,(%rdi)
  401aec:	c3                   	retq   

0000000000401aed <addval_480>:
  401aed:	8d 87 6d 48 89 e0    	lea    -0x1f76b793(%rdi),%eax
  401af3:	c3                   	retq   

0000000000401af4 <getval_346>:
  401af4:	b8 89 ca 94 90       	mov    $0x9094ca89,%eax
  401af9:	c3                   	retq   

0000000000401afa <getval_390>:
  401afa:	b8 a9 ca 84 db       	mov    $0xdb84caa9,%eax
  401aff:	c3                   	retq   

0000000000401b00 <getval_159>:
  401b00:	b8 89 c1 38 c0       	mov    $0xc038c189,%eax
  401b05:	c3                   	retq   

0000000000401b06 <addval_342>:
  401b06:	8d 87 89 ca 94 d2    	lea    -0x2d6b3577(%rdi),%eax
  401b0c:	c3                   	retq   

0000000000401b0d <setval_101>:
  401b0d:	c7 07 89 c1 78 c0    	movl   $0xc078c189,(%rdi)
  401b13:	c3                   	retq   

0000000000401b14 <addval_370>:
  401b14:	8d 87 99 c1 08 d2    	lea    -0x2df73e67(%rdi),%eax
  401b1a:	c3                   	retq   

0000000000401b1b <getval_237>:
  401b1b:	b8 89 c1 60 db       	mov    $0xdb60c189,%eax
  401b20:	c3                   	retq   

0000000000401b21 <setval_274>:
  401b21:	c7 07 6d 0d c9 c1    	movl   $0xc1c90d6d,(%rdi)
  401b27:	c3                   	retq   

0000000000401b28 <getval_204>:
  401b28:	b8 89 ca 90 c3       	mov    $0xc390ca89,%eax
  401b2d:	c3                   	retq   

0000000000401b2e <setval_313>:
  401b2e:	c7 07 89 d6 c4 d2    	movl   $0xd2c4d689,(%rdi)
  401b34:	c3                   	retq   

0000000000401b35 <setval_394>:
  401b35:	c7 07 8b ca 38 db    	movl   $0xdb38ca8b,(%rdi)
  401b3b:	c3                   	retq   

0000000000401b3c <getval_415>:
  401b3c:	b8 89 c1 c4 c9       	mov    $0xc9c4c189,%eax
  401b41:	c3                   	retq   

0000000000401b42 <addval_173>:
  401b42:	8d 87 e0 48 89 e0    	lea    -0x1f76b720(%rdi),%eax
  401b48:	c3                   	retq   

0000000000401b49 <setval_478>:
  401b49:	c7 07 68 89 e0 c3    	movl   $0xc3e08968,(%rdi)
  401b4f:	c3                   	retq   

0000000000401b50 <addval_416>:
  401b50:	8d 87 81 d6 84 c0    	lea    -0x3f7b297f(%rdi),%eax
  401b56:	c3                   	retq   

0000000000401b57 <getval_112>:
  401b57:	b8 89 d6 91 90       	mov    $0x9091d689,%eax
  401b5c:	c3                   	retq   

0000000000401b5d <getval_186>:
  401b5d:	b8 89 c1 90 c3       	mov    $0xc390c189,%eax
  401b62:	c3                   	retq   

0000000000401b63 <addval_336>:
  401b63:	8d 87 8d d6 08 db    	lea    -0x24f72973(%rdi),%eax
  401b69:	c3                   	retq   

0000000000401b6a <setval_385>:
  401b6a:	c7 07 48 89 e0 c7    	movl   $0xc7e08948,(%rdi)
  401b70:	c3                   	retq   

0000000000401b71 <getval_286>:
  401b71:	b8 e1 ba 89 d6       	mov    $0xd689bae1,%eax
  401b76:	c3                   	retq   

0000000000401b77 <getval_264>:
  401b77:	b8 ba 48 a9 e0       	mov    $0xe0a948ba,%eax
  401b7c:	c3                   	retq   

0000000000401b7d <getval_304>:
  401b7d:	b8 89 ca 20 d2       	mov    $0xd220ca89,%eax
  401b82:	c3                   	retq   

0000000000401b83 <setval_153>:
  401b83:	c7 07 48 89 e0 c2    	movl   $0xc2e08948,(%rdi)
  401b89:	c3                   	retq   

0000000000401b8a <getval_209>:
  401b8a:	b8 81 d6 84 c9       	mov    $0xc984d681,%eax
  401b8f:	c3                   	retq   

0000000000401b90 <getval_477>:
  401b90:	b8 89 c1 c4 c0       	mov    $0xc0c4c189,%eax
  401b95:	c3                   	retq   

0000000000401b96 <addval_361>:
  401b96:	8d 87 4a 89 e0 c3    	lea    -0x3c1f76b6(%rdi),%eax
  401b9c:	c3                   	retq   

0000000000401b9d <setval_495>:
  401b9d:	c7 07 89 d6 92 c3    	movl   $0xc392d689,(%rdi)
  401ba3:	c3                   	retq   

0000000000401ba4 <setval_407>:
  401ba4:	c7 07 89 ca c1 e0    	movl   $0xe0c1ca89,(%rdi)
  401baa:	c3                   	retq   

0000000000401bab <getval_302>:
  401bab:	b8 48 c9 e0 c3       	mov    $0xc3e0c948,%eax
  401bb0:	c3                   	retq   

0000000000401bb1 <addval_151>:
  401bb1:	8d 87 c9 ca 90 c3    	lea    -0x3c6f3537(%rdi),%eax
  401bb7:	c3                   	retq   

0000000000401bb8 <end_farm>:
  401bb8:	b8 01 00 00 00       	mov    $0x1,%eax
  401bbd:	c3                   	retq   

0000000000401bbe <save_char>:
  401bbe:	8b 05 60 45 20 00    	mov    0x204560(%rip),%eax        # 606124 <gets_cnt>
  401bc4:	3d ff 03 00 00       	cmp    $0x3ff,%eax
  401bc9:	7f 49                	jg     401c14 <save_char+0x56>
  401bcb:	89 f9                	mov    %edi,%ecx
  401bcd:	c0 e9 04             	shr    $0x4,%cl
  401bd0:	8d 14 40             	lea    (%rax,%rax,2),%edx
  401bd3:	83 e1 0f             	and    $0xf,%ecx
  401bd6:	0f b6 b1 70 3f 40 00 	movzbl 0x403f70(%rcx),%esi
  401bdd:	48 63 ca             	movslq %edx,%rcx
  401be0:	40 88 b1 20 55 60 00 	mov    %sil,0x605520(%rcx)
  401be7:	8d 4a 01             	lea    0x1(%rdx),%ecx
  401bea:	83 e7 0f             	and    $0xf,%edi
  401bed:	0f b6 b7 70 3f 40 00 	movzbl 0x403f70(%rdi),%esi
  401bf4:	48 63 c9             	movslq %ecx,%rcx
  401bf7:	40 88 b1 20 55 60 00 	mov    %sil,0x605520(%rcx)
  401bfe:	83 c2 02             	add    $0x2,%edx
  401c01:	48 63 d2             	movslq %edx,%rdx
  401c04:	c6 82 20 55 60 00 20 	movb   $0x20,0x605520(%rdx)
  401c0b:	83 c0 01             	add    $0x1,%eax
  401c0e:	89 05 10 45 20 00    	mov    %eax,0x204510(%rip)        # 606124 <gets_cnt>
  401c14:	c3                   	retq   

0000000000401c15 <save_term>:
  401c15:	8b 05 09 45 20 00    	mov    0x204509(%rip),%eax        # 606124 <gets_cnt>
  401c1b:	8d 04 40             	lea    (%rax,%rax,2),%eax
  401c1e:	48 98                	cltq   
  401c20:	c6 80 20 55 60 00 00 	movb   $0x0,0x605520(%rax)
  401c27:	c3                   	retq   

0000000000401c28 <check_fail>:
  401c28:	48 83 ec 08          	sub    $0x8,%rsp
  401c2c:	0f be 35 f5 44 20 00 	movsbl 0x2044f5(%rip),%esi        # 606128 <target_prefix>
  401c33:	b9 20 55 60 00       	mov    $0x605520,%ecx
  401c38:	8b 15 ba 38 20 00    	mov    0x2038ba(%rip),%edx        # 6054f8 <check_level>
  401c3e:	bf 73 3c 40 00       	mov    $0x403c73,%edi
  401c43:	b8 00 00 00 00       	mov    $0x0,%eax
  401c48:	e8 43 f1 ff ff       	callq  400d90 <printf@plt>
  401c4d:	bf 01 00 00 00       	mov    $0x1,%edi
  401c52:	e8 79 f2 ff ff       	callq  400ed0 <exit@plt>

0000000000401c57 <Gets>:
  401c57:	41 54                	push   %r12
  401c59:	55                   	push   %rbp
  401c5a:	53                   	push   %rbx
  401c5b:	49 89 fc             	mov    %rdi,%r12
  401c5e:	c7 05 bc 44 20 00 00 	movl   $0x0,0x2044bc(%rip)        # 606124 <gets_cnt>
  401c65:	00 00 00 
  401c68:	48 89 fb             	mov    %rdi,%rbx
  401c6b:	48 8b 3d 7e 38 20 00 	mov    0x20387e(%rip),%rdi        # 6054f0 <infile>
  401c72:	e8 79 f2 ff ff       	callq  400ef0 <getc@plt>
  401c77:	83 f8 ff             	cmp    $0xffffffff,%eax
  401c7a:	74 18                	je     401c94 <Gets+0x3d>
  401c7c:	83 f8 0a             	cmp    $0xa,%eax
  401c7f:	74 13                	je     401c94 <Gets+0x3d>
  401c81:	48 8d 6b 01          	lea    0x1(%rbx),%rbp
  401c85:	88 03                	mov    %al,(%rbx)
  401c87:	0f b6 f8             	movzbl %al,%edi
  401c8a:	e8 2f ff ff ff       	callq  401bbe <save_char>
  401c8f:	48 89 eb             	mov    %rbp,%rbx
  401c92:	eb d7                	jmp    401c6b <Gets+0x14>
  401c94:	c6 03 00             	movb   $0x0,(%rbx)
  401c97:	b8 00 00 00 00       	mov    $0x0,%eax
  401c9c:	e8 74 ff ff ff       	callq  401c15 <save_term>
  401ca1:	4c 89 e0             	mov    %r12,%rax
  401ca4:	5b                   	pop    %rbx
  401ca5:	5d                   	pop    %rbp
  401ca6:	41 5c                	pop    %r12
  401ca8:	c3                   	retq   

0000000000401ca9 <notify_server>:
  401ca9:	83 3d 58 38 20 00 00 	cmpl   $0x0,0x203858(%rip)        # 605508 <is_checker>
  401cb0:	0f 85 93 01 00 00    	jne    401e49 <notify_server+0x1a0>
  401cb6:	55                   	push   %rbp
  401cb7:	53                   	push   %rbx
  401cb8:	48 81 ec 08 40 00 00 	sub    $0x4008,%rsp
  401cbf:	89 fb                	mov    %edi,%ebx
  401cc1:	81 3d 59 44 20 00 9c 	cmpl   $0x1f9c,0x204459(%rip)        # 606124 <gets_cnt>
  401cc8:	1f 00 00 
  401ccb:	0f 8f ad 00 00 00    	jg     401d7e <notify_server+0xd5>
  401cd1:	44 0f be 0d 4f 44 20 	movsbl 0x20444f(%rip),%r9d        # 606128 <target_prefix>
  401cd8:	00 
  401cd9:	83 3d a8 37 20 00 00 	cmpl   $0x0,0x2037a8(%rip)        # 605488 <notify>
  401ce0:	0f 84 b1 00 00 00    	je     401d97 <notify_server+0xee>
  401ce6:	44 8b 05 13 38 20 00 	mov    0x203813(%rip),%r8d        # 605500 <authkey>
  401ced:	85 db                	test   %ebx,%ebx
  401cef:	0f 84 ad 00 00 00    	je     401da2 <notify_server+0xf9>
  401cf5:	bd 8e 3c 40 00       	mov    $0x403c8e,%ebp
  401cfa:	68 20 55 60 00       	pushq  $0x605520
  401cff:	56                   	push   %rsi
  401d00:	48 89 e9             	mov    %rbp,%rcx
  401d03:	8b 15 3f 34 20 00    	mov    0x20343f(%rip),%edx        # 605148 <target_id>
  401d09:	be 93 3c 40 00       	mov    $0x403c93,%esi
  401d0e:	48 8d bc 24 10 20 00 	lea    0x2010(%rsp),%rdi
  401d15:	00 
  401d16:	b8 00 00 00 00       	mov    $0x0,%eax
  401d1b:	e8 a0 f1 ff ff       	callq  400ec0 <sprintf@plt>
  401d20:	48 83 c4 10          	add    $0x10,%rsp
  401d24:	83 3d 5d 37 20 00 00 	cmpl   $0x0,0x20375d(%rip)        # 605488 <notify>
  401d2b:	0f 84 ab 00 00 00    	je     401ddc <notify_server+0x133>
  401d31:	85 db                	test   %ebx,%ebx
  401d33:	0f 84 8f 00 00 00    	je     401dc8 <notify_server+0x11f>
  401d39:	49 89 e1             	mov    %rsp,%r9
  401d3c:	41 b8 00 00 00 00    	mov    $0x0,%r8d
  401d42:	48 8d 8c 24 00 20 00 	lea    0x2000(%rsp),%rcx
  401d49:	00 
  401d4a:	48 8b 15 ff 33 20 00 	mov    0x2033ff(%rip),%rdx        # 605150 <lab>
  401d51:	48 8b 35 00 34 20 00 	mov    0x203400(%rip),%rsi        # 605158 <course>
  401d58:	48 8b 3d e1 33 20 00 	mov    0x2033e1(%rip),%rdi        # 605140 <user_id>
  401d5f:	e8 fb 0f 00 00       	callq  402d5f <driver_post>
  401d64:	85 c0                	test   %eax,%eax
  401d66:	78 44                	js     401dac <notify_server+0x103>
  401d68:	bf d8 3d 40 00       	mov    $0x403dd8,%edi
  401d6d:	e8 ee ef ff ff       	callq  400d60 <puts@plt>
  401d72:	bf bb 3c 40 00       	mov    $0x403cbb,%edi
  401d77:	e8 e4 ef ff ff       	callq  400d60 <puts@plt>
  401d7c:	eb 54                	jmp    401dd2 <notify_server+0x129>
  401d7e:	bf a8 3d 40 00       	mov    $0x403da8,%edi
  401d83:	b8 00 00 00 00       	mov    $0x0,%eax
  401d88:	e8 03 f0 ff ff       	callq  400d90 <printf@plt>
  401d8d:	bf 01 00 00 00       	mov    $0x1,%edi
  401d92:	e8 39 f1 ff ff       	callq  400ed0 <exit@plt>
  401d97:	41 b8 ff ff ff ff    	mov    $0xffffffff,%r8d
  401d9d:	e9 4b ff ff ff       	jmpq   401ced <notify_server+0x44>
  401da2:	bd 89 3c 40 00       	mov    $0x403c89,%ebp
  401da7:	e9 4e ff ff ff       	jmpq   401cfa <notify_server+0x51>
  401dac:	48 89 e6             	mov    %rsp,%rsi
  401daf:	bf af 3c 40 00       	mov    $0x403caf,%edi
  401db4:	b8 00 00 00 00       	mov    $0x0,%eax
  401db9:	e8 d2 ef ff ff       	callq  400d90 <printf@plt>
  401dbe:	bf 01 00 00 00       	mov    $0x1,%edi
  401dc3:	e8 08 f1 ff ff       	callq  400ed0 <exit@plt>
  401dc8:	bf c5 3c 40 00       	mov    $0x403cc5,%edi
  401dcd:	e8 8e ef ff ff       	callq  400d60 <puts@plt>
  401dd2:	48 81 c4 08 40 00 00 	add    $0x4008,%rsp
  401dd9:	5b                   	pop    %rbx
  401dda:	5d                   	pop    %rbp
  401ddb:	c3                   	retq   
  401ddc:	48 89 ee             	mov    %rbp,%rsi
  401ddf:	bf 10 3e 40 00       	mov    $0x403e10,%edi
  401de4:	b8 00 00 00 00       	mov    $0x0,%eax
  401de9:	e8 a2 ef ff ff       	callq  400d90 <printf@plt>
  401dee:	48 8b 35 4b 33 20 00 	mov    0x20334b(%rip),%rsi        # 605140 <user_id>
  401df5:	bf cc 3c 40 00       	mov    $0x403ccc,%edi
  401dfa:	b8 00 00 00 00       	mov    $0x0,%eax
  401dff:	e8 8c ef ff ff       	callq  400d90 <printf@plt>
  401e04:	48 8b 35 4d 33 20 00 	mov    0x20334d(%rip),%rsi        # 605158 <course>
  401e0b:	bf d9 3c 40 00       	mov    $0x403cd9,%edi
  401e10:	b8 00 00 00 00       	mov    $0x0,%eax
  401e15:	e8 76 ef ff ff       	callq  400d90 <printf@plt>
  401e1a:	48 8b 35 2f 33 20 00 	mov    0x20332f(%rip),%rsi        # 605150 <lab>
  401e21:	bf e5 3c 40 00       	mov    $0x403ce5,%edi
  401e26:	b8 00 00 00 00       	mov    $0x0,%eax
  401e2b:	e8 60 ef ff ff       	callq  400d90 <printf@plt>
  401e30:	48 8d b4 24 00 20 00 	lea    0x2000(%rsp),%rsi
  401e37:	00 
  401e38:	bf ee 3c 40 00       	mov    $0x403cee,%edi
  401e3d:	b8 00 00 00 00       	mov    $0x0,%eax
  401e42:	e8 49 ef ff ff       	callq  400d90 <printf@plt>
  401e47:	eb 89                	jmp    401dd2 <notify_server+0x129>
  401e49:	c3                   	retq   

0000000000401e4a <validate>:
  401e4a:	53                   	push   %rbx
  401e4b:	89 fb                	mov    %edi,%ebx
  401e4d:	48 89 e0             	mov    %rsp,%rax
  401e50:	48 83 cc 08          	or     $0x8,%rsp
  401e54:	48 83 ec 18          	sub    $0x18,%rsp
  401e58:	48 89 04 24          	mov    %rax,(%rsp)
  401e5c:	83 3d a5 36 20 00 00 	cmpl   $0x0,0x2036a5(%rip)        # 605508 <is_checker>
  401e63:	74 67                	je     401ecc <validate+0x82>
  401e65:	39 3d 91 36 20 00    	cmp    %edi,0x203691(%rip)        # 6054fc <vlevel>
  401e6b:	75 30                	jne    401e9d <validate+0x53>
  401e6d:	8b 35 85 36 20 00    	mov    0x203685(%rip),%esi        # 6054f8 <check_level>
  401e73:	39 fe                	cmp    %edi,%esi
  401e75:	75 3a                	jne    401eb1 <validate+0x67>
  401e77:	0f be 35 aa 42 20 00 	movsbl 0x2042aa(%rip),%esi        # 606128 <target_prefix>
  401e7e:	b9 20 55 60 00       	mov    $0x605520,%ecx
  401e83:	89 fa                	mov    %edi,%edx
  401e85:	bf 18 3d 40 00       	mov    $0x403d18,%edi
  401e8a:	b8 00 00 00 00       	mov    $0x0,%eax
  401e8f:	e8 fc ee ff ff       	callq  400d90 <printf@plt>
  401e94:	48 8b 04 24          	mov    (%rsp),%rax
  401e98:	48 89 c4             	mov    %rax,%rsp
  401e9b:	5b                   	pop    %rbx
  401e9c:	c3                   	retq   
  401e9d:	bf fa 3c 40 00       	mov    $0x403cfa,%edi
  401ea2:	e8 b9 ee ff ff       	callq  400d60 <puts@plt>
  401ea7:	b8 00 00 00 00       	mov    $0x0,%eax
  401eac:	e8 77 fd ff ff       	callq  401c28 <check_fail>
  401eb1:	89 fa                	mov    %edi,%edx
  401eb3:	bf 38 3e 40 00       	mov    $0x403e38,%edi
  401eb8:	b8 00 00 00 00       	mov    $0x0,%eax
  401ebd:	e8 ce ee ff ff       	callq  400d90 <printf@plt>
  401ec2:	b8 00 00 00 00       	mov    $0x0,%eax
  401ec7:	e8 5c fd ff ff       	callq  401c28 <check_fail>
  401ecc:	39 3d 2a 36 20 00    	cmp    %edi,0x20362a(%rip)        # 6054fc <vlevel>
  401ed2:	74 18                	je     401eec <validate+0xa2>
  401ed4:	bf fa 3c 40 00       	mov    $0x403cfa,%edi
  401ed9:	e8 82 ee ff ff       	callq  400d60 <puts@plt>
  401ede:	89 de                	mov    %ebx,%esi
  401ee0:	bf 00 00 00 00       	mov    $0x0,%edi
  401ee5:	e8 bf fd ff ff       	callq  401ca9 <notify_server>
  401eea:	eb a8                	jmp    401e94 <validate+0x4a>
  401eec:	0f be 15 35 42 20 00 	movsbl 0x204235(%rip),%edx        # 606128 <target_prefix>
  401ef3:	89 fe                	mov    %edi,%esi
  401ef5:	bf 60 3e 40 00       	mov    $0x403e60,%edi
  401efa:	b8 00 00 00 00       	mov    $0x0,%eax
  401eff:	e8 8c ee ff ff       	callq  400d90 <printf@plt>
  401f04:	89 de                	mov    %ebx,%esi
  401f06:	bf 01 00 00 00       	mov    $0x1,%edi
  401f0b:	e8 99 fd ff ff       	callq  401ca9 <notify_server>
  401f10:	eb 82                	jmp    401e94 <validate+0x4a>

0000000000401f12 <fail>:
  401f12:	48 83 ec 08          	sub    $0x8,%rsp
  401f16:	83 3d eb 35 20 00 00 	cmpl   $0x0,0x2035eb(%rip)        # 605508 <is_checker>
  401f1d:	75 11                	jne    401f30 <fail+0x1e>
  401f1f:	89 fe                	mov    %edi,%esi
  401f21:	bf 00 00 00 00       	mov    $0x0,%edi
  401f26:	e8 7e fd ff ff       	callq  401ca9 <notify_server>
  401f2b:	48 83 c4 08          	add    $0x8,%rsp
  401f2f:	c3                   	retq   
  401f30:	b8 00 00 00 00       	mov    $0x0,%eax
  401f35:	e8 ee fc ff ff       	callq  401c28 <check_fail>

0000000000401f3a <bushandler>:
  401f3a:	48 83 ec 08          	sub    $0x8,%rsp
  401f3e:	83 3d c3 35 20 00 00 	cmpl   $0x0,0x2035c3(%rip)        # 605508 <is_checker>
  401f45:	74 14                	je     401f5b <bushandler+0x21>
  401f47:	bf 2d 3d 40 00       	mov    $0x403d2d,%edi
  401f4c:	e8 0f ee ff ff       	callq  400d60 <puts@plt>
  401f51:	b8 00 00 00 00       	mov    $0x0,%eax
  401f56:	e8 cd fc ff ff       	callq  401c28 <check_fail>
  401f5b:	bf 98 3e 40 00       	mov    $0x403e98,%edi
  401f60:	e8 fb ed ff ff       	callq  400d60 <puts@plt>
  401f65:	bf 37 3d 40 00       	mov    $0x403d37,%edi
  401f6a:	e8 f1 ed ff ff       	callq  400d60 <puts@plt>
  401f6f:	be 00 00 00 00       	mov    $0x0,%esi
  401f74:	bf 00 00 00 00       	mov    $0x0,%edi
  401f79:	e8 2b fd ff ff       	callq  401ca9 <notify_server>
  401f7e:	bf 01 00 00 00       	mov    $0x1,%edi
  401f83:	e8 48 ef ff ff       	callq  400ed0 <exit@plt>

0000000000401f88 <seghandler>:
  401f88:	48 83 ec 08          	sub    $0x8,%rsp
  401f8c:	83 3d 75 35 20 00 00 	cmpl   $0x0,0x203575(%rip)        # 605508 <is_checker>
  401f93:	74 14                	je     401fa9 <seghandler+0x21>
  401f95:	bf 4d 3d 40 00       	mov    $0x403d4d,%edi
  401f9a:	e8 c1 ed ff ff       	callq  400d60 <puts@plt>
  401f9f:	b8 00 00 00 00       	mov    $0x0,%eax
  401fa4:	e8 7f fc ff ff       	callq  401c28 <check_fail>
  401fa9:	bf b8 3e 40 00       	mov    $0x403eb8,%edi
  401fae:	e8 ad ed ff ff       	callq  400d60 <puts@plt>
  401fb3:	bf 37 3d 40 00       	mov    $0x403d37,%edi
  401fb8:	e8 a3 ed ff ff       	callq  400d60 <puts@plt>
  401fbd:	be 00 00 00 00       	mov    $0x0,%esi
  401fc2:	bf 00 00 00 00       	mov    $0x0,%edi
  401fc7:	e8 dd fc ff ff       	callq  401ca9 <notify_server>
  401fcc:	bf 01 00 00 00       	mov    $0x1,%edi
  401fd1:	e8 fa ee ff ff       	callq  400ed0 <exit@plt>

0000000000401fd6 <illegalhandler>:
  401fd6:	48 83 ec 08          	sub    $0x8,%rsp
  401fda:	83 3d 27 35 20 00 00 	cmpl   $0x0,0x203527(%rip)        # 605508 <is_checker>
  401fe1:	74 14                	je     401ff7 <illegalhandler+0x21>
  401fe3:	bf 60 3d 40 00       	mov    $0x403d60,%edi
  401fe8:	e8 73 ed ff ff       	callq  400d60 <puts@plt>
  401fed:	b8 00 00 00 00       	mov    $0x0,%eax
  401ff2:	e8 31 fc ff ff       	callq  401c28 <check_fail>
  401ff7:	bf e0 3e 40 00       	mov    $0x403ee0,%edi
  401ffc:	e8 5f ed ff ff       	callq  400d60 <puts@plt>
  402001:	bf 37 3d 40 00       	mov    $0x403d37,%edi
  402006:	e8 55 ed ff ff       	callq  400d60 <puts@plt>
  40200b:	be 00 00 00 00       	mov    $0x0,%esi
  402010:	bf 00 00 00 00       	mov    $0x0,%edi
  402015:	e8 8f fc ff ff       	callq  401ca9 <notify_server>
  40201a:	bf 01 00 00 00       	mov    $0x1,%edi
  40201f:	e8 ac ee ff ff       	callq  400ed0 <exit@plt>

0000000000402024 <sigalrmhandler>:
  402024:	48 83 ec 08          	sub    $0x8,%rsp
  402028:	83 3d d9 34 20 00 00 	cmpl   $0x0,0x2034d9(%rip)        # 605508 <is_checker>
  40202f:	74 14                	je     402045 <sigalrmhandler+0x21>
  402031:	bf 74 3d 40 00       	mov    $0x403d74,%edi
  402036:	e8 25 ed ff ff       	callq  400d60 <puts@plt>
  40203b:	b8 00 00 00 00       	mov    $0x0,%eax
  402040:	e8 e3 fb ff ff       	callq  401c28 <check_fail>
  402045:	be 05 00 00 00       	mov    $0x5,%esi
  40204a:	bf 10 3f 40 00       	mov    $0x403f10,%edi
  40204f:	b8 00 00 00 00       	mov    $0x0,%eax
  402054:	e8 37 ed ff ff       	callq  400d90 <printf@plt>
  402059:	be 00 00 00 00       	mov    $0x0,%esi
  40205e:	bf 00 00 00 00       	mov    $0x0,%edi
  402063:	e8 41 fc ff ff       	callq  401ca9 <notify_server>
  402068:	bf 01 00 00 00       	mov    $0x1,%edi
  40206d:	e8 5e ee ff ff       	callq  400ed0 <exit@plt>

0000000000402072 <launch>:
  402072:	55                   	push   %rbp
  402073:	48 89 e5             	mov    %rsp,%rbp
  402076:	48 89 fa             	mov    %rdi,%rdx
  402079:	48 8d 47 17          	lea    0x17(%rdi),%rax
  40207d:	48 83 e0 f0          	and    $0xfffffffffffffff0,%rax
  402081:	48 29 c4             	sub    %rax,%rsp
  402084:	48 8d 7c 24 0f       	lea    0xf(%rsp),%rdi
  402089:	48 83 e7 f0          	and    $0xfffffffffffffff0,%rdi
  40208d:	be f4 00 00 00       	mov    $0xf4,%esi
  402092:	e8 09 ed ff ff       	callq  400da0 <memset@plt>
  402097:	48 8b 05 02 34 20 00 	mov    0x203402(%rip),%rax        # 6054a0 <stdin@@GLIBC_2.2.5>
  40209e:	48 39 05 4b 34 20 00 	cmp    %rax,0x20344b(%rip)        # 6054f0 <infile>
  4020a5:	74 29                	je     4020d0 <launch+0x5e>
  4020a7:	c7 05 4b 34 20 00 00 	movl   $0x0,0x20344b(%rip)        # 6054fc <vlevel>
  4020ae:	00 00 00 
  4020b1:	b8 00 00 00 00       	mov    $0x0,%eax
  4020b6:	e8 bf f9 ff ff       	callq  401a7a <test>
  4020bb:	83 3d 46 34 20 00 00 	cmpl   $0x0,0x203446(%rip)        # 605508 <is_checker>
  4020c2:	75 1d                	jne    4020e1 <launch+0x6f>
  4020c4:	bf 94 3d 40 00       	mov    $0x403d94,%edi
  4020c9:	e8 92 ec ff ff       	callq  400d60 <puts@plt>
  4020ce:	c9                   	leaveq 
  4020cf:	c3                   	retq   
  4020d0:	bf 7c 3d 40 00       	mov    $0x403d7c,%edi
  4020d5:	b8 00 00 00 00       	mov    $0x0,%eax
  4020da:	e8 b1 ec ff ff       	callq  400d90 <printf@plt>
  4020df:	eb c6                	jmp    4020a7 <launch+0x35>
  4020e1:	bf 89 3d 40 00       	mov    $0x403d89,%edi
  4020e6:	e8 75 ec ff ff       	callq  400d60 <puts@plt>
  4020eb:	b8 00 00 00 00       	mov    $0x0,%eax
  4020f0:	e8 33 fb ff ff       	callq  401c28 <check_fail>

00000000004020f5 <stable_launch>:
  4020f5:	53                   	push   %rbx
  4020f6:	48 89 3d eb 33 20 00 	mov    %rdi,0x2033eb(%rip)        # 6054e8 <global_offset>
  4020fd:	41 b9 00 00 00 00    	mov    $0x0,%r9d
  402103:	41 b8 00 00 00 00    	mov    $0x0,%r8d
  402109:	b9 32 01 00 00       	mov    $0x132,%ecx
  40210e:	ba 07 00 00 00       	mov    $0x7,%edx
  402113:	be 00 00 10 00       	mov    $0x100000,%esi
  402118:	bf 00 60 58 55       	mov    $0x55586000,%edi
  40211d:	e8 5e ec ff ff       	callq  400d80 <mmap@plt>
  402122:	48 89 c3             	mov    %rax,%rbx
  402125:	48 3d 00 60 58 55    	cmp    $0x55586000,%rax
  40212b:	75 43                	jne    402170 <stable_launch+0x7b>
  40212d:	48 8d 90 f8 ff 0f 00 	lea    0xffff8(%rax),%rdx
  402134:	48 89 15 f5 3f 20 00 	mov    %rdx,0x203ff5(%rip)        # 606130 <stack_top>
  40213b:	48 89 e0             	mov    %rsp,%rax
  40213e:	48 89 d4             	mov    %rdx,%rsp
  402141:	48 89 c2             	mov    %rax,%rdx
  402144:	48 89 15 95 33 20 00 	mov    %rdx,0x203395(%rip)        # 6054e0 <global_save_stack>
  40214b:	48 8b 3d 96 33 20 00 	mov    0x203396(%rip),%rdi        # 6054e8 <global_offset>
  402152:	e8 1b ff ff ff       	callq  402072 <launch>
  402157:	48 8b 05 82 33 20 00 	mov    0x203382(%rip),%rax        # 6054e0 <global_save_stack>
  40215e:	48 89 c4             	mov    %rax,%rsp
  402161:	be 00 00 10 00       	mov    $0x100000,%esi
  402166:	48 89 df             	mov    %rbx,%rdi
  402169:	e8 f2 ec ff ff       	callq  400e60 <munmap@plt>
  40216e:	5b                   	pop    %rbx
  40216f:	c3                   	retq   
  402170:	be 00 00 10 00       	mov    $0x100000,%esi
  402175:	48 89 c7             	mov    %rax,%rdi
  402178:	e8 e3 ec ff ff       	callq  400e60 <munmap@plt>
  40217d:	ba 00 60 58 55       	mov    $0x55586000,%edx
  402182:	be 48 3f 40 00       	mov    $0x403f48,%esi
  402187:	48 8b 3d 32 33 20 00 	mov    0x203332(%rip),%rdi        # 6054c0 <stderr@@GLIBC_2.2.5>
  40218e:	b8 00 00 00 00       	mov    $0x0,%eax
  402193:	e8 68 ec ff ff       	callq  400e00 <fprintf@plt>
  402198:	bf 01 00 00 00       	mov    $0x1,%edi
  40219d:	e8 2e ed ff ff       	callq  400ed0 <exit@plt>

00000000004021a2 <rio_readinitb>:
  4021a2:	89 37                	mov    %esi,(%rdi)
  4021a4:	c7 47 04 00 00 00 00 	movl   $0x0,0x4(%rdi)
  4021ab:	48 8d 47 10          	lea    0x10(%rdi),%rax
  4021af:	48 89 47 08          	mov    %rax,0x8(%rdi)
  4021b3:	c3                   	retq   

00000000004021b4 <sigalrm_handler>:
  4021b4:	48 83 ec 08          	sub    $0x8,%rsp
  4021b8:	ba 00 00 00 00       	mov    $0x0,%edx
  4021bd:	be 80 3f 40 00       	mov    $0x403f80,%esi
  4021c2:	48 8b 3d f7 32 20 00 	mov    0x2032f7(%rip),%rdi        # 6054c0 <stderr@@GLIBC_2.2.5>
  4021c9:	b8 00 00 00 00       	mov    $0x0,%eax
  4021ce:	e8 2d ec ff ff       	callq  400e00 <fprintf@plt>
  4021d3:	bf 01 00 00 00       	mov    $0x1,%edi
  4021d8:	e8 f3 ec ff ff       	callq  400ed0 <exit@plt>

00000000004021dd <urlencode>:
  4021dd:	41 54                	push   %r12
  4021df:	55                   	push   %rbp
  4021e0:	53                   	push   %rbx
  4021e1:	48 83 ec 10          	sub    $0x10,%rsp
  4021e5:	48 89 fb             	mov    %rdi,%rbx
  4021e8:	48 89 f5             	mov    %rsi,%rbp
  4021eb:	48 c7 c1 ff ff ff ff 	mov    $0xffffffffffffffff,%rcx
  4021f2:	b8 00 00 00 00       	mov    $0x0,%eax
  4021f7:	f2 ae                	repnz scas %es:(%rdi),%al
  4021f9:	48 89 ce             	mov    %rcx,%rsi
  4021fc:	48 f7 d6             	not    %rsi
  4021ff:	8d 46 ff             	lea    -0x1(%rsi),%eax
  402202:	eb 0e                	jmp    402212 <urlencode+0x35>
  402204:	88 55 00             	mov    %dl,0x0(%rbp)
  402207:	48 8d 6d 01          	lea    0x1(%rbp),%rbp
  40220b:	48 83 c3 01          	add    $0x1,%rbx
  40220f:	44 89 e0             	mov    %r12d,%eax
  402212:	44 8d 60 ff          	lea    -0x1(%rax),%r12d
  402216:	85 c0                	test   %eax,%eax
  402218:	0f 84 93 00 00 00    	je     4022b1 <urlencode+0xd4>
  40221e:	0f b6 13             	movzbl (%rbx),%edx
  402221:	80 fa 2a             	cmp    $0x2a,%dl
  402224:	0f 94 c1             	sete   %cl
  402227:	80 fa 2d             	cmp    $0x2d,%dl
  40222a:	0f 94 c0             	sete   %al
  40222d:	08 c1                	or     %al,%cl
  40222f:	75 d3                	jne    402204 <urlencode+0x27>
  402231:	80 fa 2e             	cmp    $0x2e,%dl
  402234:	74 ce                	je     402204 <urlencode+0x27>
  402236:	80 fa 5f             	cmp    $0x5f,%dl
  402239:	74 c9                	je     402204 <urlencode+0x27>
  40223b:	8d 42 d0             	lea    -0x30(%rdx),%eax
  40223e:	3c 09                	cmp    $0x9,%al
  402240:	76 c2                	jbe    402204 <urlencode+0x27>
  402242:	8d 42 bf             	lea    -0x41(%rdx),%eax
  402245:	3c 19                	cmp    $0x19,%al
  402247:	76 bb                	jbe    402204 <urlencode+0x27>
  402249:	8d 42 9f             	lea    -0x61(%rdx),%eax
  40224c:	3c 19                	cmp    $0x19,%al
  40224e:	76 b4                	jbe    402204 <urlencode+0x27>
  402250:	80 fa 20             	cmp    $0x20,%dl
  402253:	74 4a                	je     40229f <urlencode+0xc2>
  402255:	8d 42 e0             	lea    -0x20(%rdx),%eax
  402258:	3c 5f                	cmp    $0x5f,%al
  40225a:	0f 96 c1             	setbe  %cl
  40225d:	80 fa 09             	cmp    $0x9,%dl
  402260:	0f 94 c0             	sete   %al
  402263:	08 c1                	or     %al,%cl
  402265:	74 45                	je     4022ac <urlencode+0xcf>
  402267:	0f b6 d2             	movzbl %dl,%edx
  40226a:	be 18 40 40 00       	mov    $0x404018,%esi
  40226f:	48 8d 7c 24 08       	lea    0x8(%rsp),%rdi
  402274:	b8 00 00 00 00       	mov    $0x0,%eax
  402279:	e8 42 ec ff ff       	callq  400ec0 <sprintf@plt>
  40227e:	0f b6 44 24 08       	movzbl 0x8(%rsp),%eax
  402283:	88 45 00             	mov    %al,0x0(%rbp)
  402286:	0f b6 44 24 09       	movzbl 0x9(%rsp),%eax
  40228b:	88 45 01             	mov    %al,0x1(%rbp)
  40228e:	0f b6 44 24 0a       	movzbl 0xa(%rsp),%eax
  402293:	88 45 02             	mov    %al,0x2(%rbp)
  402296:	48 8d 6d 03          	lea    0x3(%rbp),%rbp
  40229a:	e9 6c ff ff ff       	jmpq   40220b <urlencode+0x2e>
  40229f:	c6 45 00 2b          	movb   $0x2b,0x0(%rbp)
  4022a3:	48 8d 6d 01          	lea    0x1(%rbp),%rbp
  4022a7:	e9 5f ff ff ff       	jmpq   40220b <urlencode+0x2e>
  4022ac:	b8 ff ff ff ff       	mov    $0xffffffff,%eax
  4022b1:	48 83 c4 10          	add    $0x10,%rsp
  4022b5:	5b                   	pop    %rbx
  4022b6:	5d                   	pop    %rbp
  4022b7:	41 5c                	pop    %r12
  4022b9:	c3                   	retq   

00000000004022ba <rio_writen>:
  4022ba:	41 55                	push   %r13
  4022bc:	41 54                	push   %r12
  4022be:	55                   	push   %rbp
  4022bf:	53                   	push   %rbx
  4022c0:	48 83 ec 08          	sub    $0x8,%rsp
  4022c4:	41 89 fc             	mov    %edi,%r12d
  4022c7:	48 89 f5             	mov    %rsi,%rbp
  4022ca:	49 89 d5             	mov    %rdx,%r13
  4022cd:	48 89 d3             	mov    %rdx,%rbx
  4022d0:	eb 06                	jmp    4022d8 <rio_writen+0x1e>
  4022d2:	48 29 c3             	sub    %rax,%rbx
  4022d5:	48 01 c5             	add    %rax,%rbp
  4022d8:	48 85 db             	test   %rbx,%rbx
  4022db:	74 24                	je     402301 <rio_writen+0x47>
  4022dd:	48 89 da             	mov    %rbx,%rdx
  4022e0:	48 89 ee             	mov    %rbp,%rsi
  4022e3:	44 89 e7             	mov    %r12d,%edi
  4022e6:	e8 85 ea ff ff       	callq  400d70 <write@plt>
  4022eb:	48 85 c0             	test   %rax,%rax
  4022ee:	7f e2                	jg     4022d2 <rio_writen+0x18>
  4022f0:	e8 2b ea ff ff       	callq  400d20 <__errno_location@plt>
  4022f5:	83 38 04             	cmpl   $0x4,(%rax)
  4022f8:	75 15                	jne    40230f <rio_writen+0x55>
  4022fa:	b8 00 00 00 00       	mov    $0x0,%eax
  4022ff:	eb d1                	jmp    4022d2 <rio_writen+0x18>
  402301:	4c 89 e8             	mov    %r13,%rax
  402304:	48 83 c4 08          	add    $0x8,%rsp
  402308:	5b                   	pop    %rbx
  402309:	5d                   	pop    %rbp
  40230a:	41 5c                	pop    %r12
  40230c:	41 5d                	pop    %r13
  40230e:	c3                   	retq   
  40230f:	48 c7 c0 ff ff ff ff 	mov    $0xffffffffffffffff,%rax
  402316:	eb ec                	jmp    402304 <rio_writen+0x4a>

0000000000402318 <rio_read>:
  402318:	41 55                	push   %r13
  40231a:	41 54                	push   %r12
  40231c:	55                   	push   %rbp
  40231d:	53                   	push   %rbx
  40231e:	48 83 ec 08          	sub    $0x8,%rsp
  402322:	48 89 fb             	mov    %rdi,%rbx
  402325:	49 89 f5             	mov    %rsi,%r13
  402328:	49 89 d4             	mov    %rdx,%r12
  40232b:	eb 0a                	jmp    402337 <rio_read+0x1f>
  40232d:	e8 ee e9 ff ff       	callq  400d20 <__errno_location@plt>
  402332:	83 38 04             	cmpl   $0x4,(%rax)
  402335:	75 5a                	jne    402391 <rio_read+0x79>
  402337:	8b 6b 04             	mov    0x4(%rbx),%ebp
  40233a:	85 ed                	test   %ebp,%ebp
  40233c:	7f 22                	jg     402360 <rio_read+0x48>
  40233e:	48 8d 6b 10          	lea    0x10(%rbx),%rbp
  402342:	ba 00 20 00 00       	mov    $0x2000,%edx
  402347:	48 89 ee             	mov    %rbp,%rsi
  40234a:	8b 3b                	mov    (%rbx),%edi
  40234c:	e8 7f ea ff ff       	callq  400dd0 <read@plt>
  402351:	89 43 04             	mov    %eax,0x4(%rbx)
  402354:	85 c0                	test   %eax,%eax
  402356:	78 d5                	js     40232d <rio_read+0x15>
  402358:	74 40                	je     40239a <rio_read+0x82>
  40235a:	48 89 6b 08          	mov    %rbp,0x8(%rbx)
  40235e:	eb d7                	jmp    402337 <rio_read+0x1f>
  402360:	89 e8                	mov    %ebp,%eax
  402362:	4c 39 e0             	cmp    %r12,%rax
  402365:	72 03                	jb     40236a <rio_read+0x52>
  402367:	44 89 e5             	mov    %r12d,%ebp
  40236a:	4c 63 e5             	movslq %ebp,%r12
  40236d:	48 8b 73 08          	mov    0x8(%rbx),%rsi
  402371:	4c 89 e2             	mov    %r12,%rdx
  402374:	4c 89 ef             	mov    %r13,%rdi
  402377:	e8 a4 ea ff ff       	callq  400e20 <memcpy@plt>
  40237c:	4c 01 63 08          	add    %r12,0x8(%rbx)
  402380:	29 6b 04             	sub    %ebp,0x4(%rbx)
  402383:	4c 89 e0             	mov    %r12,%rax
  402386:	48 83 c4 08          	add    $0x8,%rsp
  40238a:	5b                   	pop    %rbx
  40238b:	5d                   	pop    %rbp
  40238c:	41 5c                	pop    %r12
  40238e:	41 5d                	pop    %r13
  402390:	c3                   	retq   
  402391:	48 c7 c0 ff ff ff ff 	mov    $0xffffffffffffffff,%rax
  402398:	eb ec                	jmp    402386 <rio_read+0x6e>
  40239a:	b8 00 00 00 00       	mov    $0x0,%eax
  40239f:	eb e5                	jmp    402386 <rio_read+0x6e>

00000000004023a1 <rio_readlineb>:
  4023a1:	41 55                	push   %r13
  4023a3:	41 54                	push   %r12
  4023a5:	55                   	push   %rbp
  4023a6:	53                   	push   %rbx
  4023a7:	48 83 ec 18          	sub    $0x18,%rsp
  4023ab:	49 89 fd             	mov    %rdi,%r13
  4023ae:	48 89 f5             	mov    %rsi,%rbp
  4023b1:	49 89 d4             	mov    %rdx,%r12
  4023b4:	bb 01 00 00 00       	mov    $0x1,%ebx
  4023b9:	4c 39 e3             	cmp    %r12,%rbx
  4023bc:	73 44                	jae    402402 <rio_readlineb+0x61>
  4023be:	ba 01 00 00 00       	mov    $0x1,%edx
  4023c3:	48 8d 74 24 0f       	lea    0xf(%rsp),%rsi
  4023c8:	4c 89 ef             	mov    %r13,%rdi
  4023cb:	e8 48 ff ff ff       	callq  402318 <rio_read>
  4023d0:	83 f8 01             	cmp    $0x1,%eax
  4023d3:	75 19                	jne    4023ee <rio_readlineb+0x4d>
  4023d5:	48 8d 55 01          	lea    0x1(%rbp),%rdx
  4023d9:	0f b6 44 24 0f       	movzbl 0xf(%rsp),%eax
  4023de:	88 45 00             	mov    %al,0x0(%rbp)
  4023e1:	3c 0a                	cmp    $0xa,%al
  4023e3:	74 1a                	je     4023ff <rio_readlineb+0x5e>
  4023e5:	48 83 c3 01          	add    $0x1,%rbx
  4023e9:	48 89 d5             	mov    %rdx,%rbp
  4023ec:	eb cb                	jmp    4023b9 <rio_readlineb+0x18>
  4023ee:	85 c0                	test   %eax,%eax
  4023f0:	75 22                	jne    402414 <rio_readlineb+0x73>
  4023f2:	48 83 fb 01          	cmp    $0x1,%rbx
  4023f6:	75 0a                	jne    402402 <rio_readlineb+0x61>
  4023f8:	b8 00 00 00 00       	mov    $0x0,%eax
  4023fd:	eb 0a                	jmp    402409 <rio_readlineb+0x68>
  4023ff:	48 89 d5             	mov    %rdx,%rbp
  402402:	c6 45 00 00          	movb   $0x0,0x0(%rbp)
  402406:	48 89 d8             	mov    %rbx,%rax
  402409:	48 83 c4 18          	add    $0x18,%rsp
  40240d:	5b                   	pop    %rbx
  40240e:	5d                   	pop    %rbp
  40240f:	41 5c                	pop    %r12
  402411:	41 5d                	pop    %r13
  402413:	c3                   	retq   
  402414:	48 c7 c0 ff ff ff ff 	mov    $0xffffffffffffffff,%rax
  40241b:	eb ec                	jmp    402409 <rio_readlineb+0x68>

000000000040241d <submitr>:
  40241d:	41 57                	push   %r15
  40241f:	41 56                	push   %r14
  402421:	41 55                	push   %r13
  402423:	41 54                	push   %r12
  402425:	55                   	push   %rbp
  402426:	53                   	push   %rbx
  402427:	48 81 ec 48 a0 00 00 	sub    $0xa048,%rsp
  40242e:	49 89 fc             	mov    %rdi,%r12
  402431:	89 74 24 04          	mov    %esi,0x4(%rsp)
  402435:	49 89 d7             	mov    %rdx,%r15
  402438:	49 89 ce             	mov    %rcx,%r14
  40243b:	4c 89 44 24 08       	mov    %r8,0x8(%rsp)
  402440:	4d 89 cd             	mov    %r9,%r13
  402443:	48 8b ac 24 80 a0 00 	mov    0xa080(%rsp),%rbp
  40244a:	00 
  40244b:	c7 84 24 1c 20 00 00 	movl   $0x0,0x201c(%rsp)
  402452:	00 00 00 00 
  402456:	ba 00 00 00 00       	mov    $0x0,%edx
  40245b:	be 01 00 00 00       	mov    $0x1,%esi
  402460:	bf 02 00 00 00       	mov    $0x2,%edi
  402465:	e8 96 ea ff ff       	callq  400f00 <socket@plt>
  40246a:	85 c0                	test   %eax,%eax
  40246c:	0f 88 8f 02 00 00    	js     402701 <submitr+0x2e4>
  402472:	89 c3                	mov    %eax,%ebx
  402474:	4c 89 e7             	mov    %r12,%rdi
  402477:	e8 74 e9 ff ff       	callq  400df0 <gethostbyname@plt>
  40247c:	48 85 c0             	test   %rax,%rax
  40247f:	0f 84 c8 02 00 00    	je     40274d <submitr+0x330>
  402485:	48 c7 84 24 32 a0 00 	movq   $0x0,0xa032(%rsp)
  40248c:	00 00 00 00 00 
  402491:	c7 84 24 3a a0 00 00 	movl   $0x0,0xa03a(%rsp)
  402498:	00 00 00 00 
  40249c:	66 c7 84 24 3e a0 00 	movw   $0x0,0xa03e(%rsp)
  4024a3:	00 00 00 
  4024a6:	66 c7 84 24 30 a0 00 	movw   $0x2,0xa030(%rsp)
  4024ad:	00 02 00 
  4024b0:	48 8b 48 18          	mov    0x18(%rax),%rcx
  4024b4:	48 63 50 14          	movslq 0x14(%rax),%rdx
  4024b8:	48 8d bc 24 34 a0 00 	lea    0xa034(%rsp),%rdi
  4024bf:	00 
  4024c0:	48 8b 31             	mov    (%rcx),%rsi
  4024c3:	e8 a8 e9 ff ff       	callq  400e70 <memmove@plt>
  4024c8:	0f b7 44 24 04       	movzwl 0x4(%rsp),%eax
  4024cd:	66 c1 c0 08          	rol    $0x8,%ax
  4024d1:	66 89 84 24 32 a0 00 	mov    %ax,0xa032(%rsp)
  4024d8:	00 
  4024d9:	ba 10 00 00 00       	mov    $0x10,%edx
  4024de:	48 8d b4 24 30 a0 00 	lea    0xa030(%rsp),%rsi
  4024e5:	00 
  4024e6:	89 df                	mov    %ebx,%edi
  4024e8:	e8 f3 e9 ff ff       	callq  400ee0 <connect@plt>
  4024ed:	85 c0                	test   %eax,%eax
  4024ef:	0f 88 c0 02 00 00    	js     4027b5 <submitr+0x398>
  4024f5:	48 c7 c6 ff ff ff ff 	mov    $0xffffffffffffffff,%rsi
  4024fc:	b8 00 00 00 00       	mov    $0x0,%eax
  402501:	48 89 f1             	mov    %rsi,%rcx
  402504:	4c 89 ef             	mov    %r13,%rdi
  402507:	f2 ae                	repnz scas %es:(%rdi),%al
  402509:	48 89 ca             	mov    %rcx,%rdx
  40250c:	48 f7 d2             	not    %rdx
  40250f:	48 89 f1             	mov    %rsi,%rcx
  402512:	4c 89 ff             	mov    %r15,%rdi
  402515:	f2 ae                	repnz scas %es:(%rdi),%al
  402517:	48 f7 d1             	not    %rcx
  40251a:	49 89 c8             	mov    %rcx,%r8
  40251d:	48 89 f1             	mov    %rsi,%rcx
  402520:	4c 89 f7             	mov    %r14,%rdi
  402523:	f2 ae                	repnz scas %es:(%rdi),%al
  402525:	48 f7 d1             	not    %rcx
  402528:	4d 8d 44 08 fe       	lea    -0x2(%r8,%rcx,1),%r8
  40252d:	48 89 f1             	mov    %rsi,%rcx
  402530:	48 8b 7c 24 08       	mov    0x8(%rsp),%rdi
  402535:	f2 ae                	repnz scas %es:(%rdi),%al
  402537:	48 89 c8             	mov    %rcx,%rax
  40253a:	48 f7 d0             	not    %rax
  40253d:	49 8d 4c 00 ff       	lea    -0x1(%r8,%rax,1),%rcx
  402542:	48 8d 44 52 fd       	lea    -0x3(%rdx,%rdx,2),%rax
  402547:	48 8d 84 01 80 00 00 	lea    0x80(%rcx,%rax,1),%rax
  40254e:	00 
  40254f:	48 3d 00 20 00 00    	cmp    $0x2000,%rax
  402555:	0f 87 b4 02 00 00    	ja     40280f <submitr+0x3f2>
  40255b:	48 8d b4 24 20 40 00 	lea    0x4020(%rsp),%rsi
  402562:	00 
  402563:	b9 00 04 00 00       	mov    $0x400,%ecx
  402568:	b8 00 00 00 00       	mov    $0x0,%eax
  40256d:	48 89 f7             	mov    %rsi,%rdi
  402570:	f3 48 ab             	rep stos %rax,%es:(%rdi)
  402573:	4c 89 ef             	mov    %r13,%rdi
  402576:	e8 62 fc ff ff       	callq  4021dd <urlencode>
  40257b:	85 c0                	test   %eax,%eax
  40257d:	0f 88 ff 02 00 00    	js     402882 <submitr+0x465>
  402583:	4c 8d ac 24 20 60 00 	lea    0x6020(%rsp),%r13
  40258a:	00 
  40258b:	4d 89 e1             	mov    %r12,%r9
  40258e:	4c 8d 84 24 20 40 00 	lea    0x4020(%rsp),%r8
  402595:	00 
  402596:	4c 89 f9             	mov    %r15,%rcx
  402599:	4c 89 f2             	mov    %r14,%rdx
  40259c:	be a8 3f 40 00       	mov    $0x403fa8,%esi
  4025a1:	4c 89 ef             	mov    %r13,%rdi
  4025a4:	b8 00 00 00 00       	mov    $0x0,%eax
  4025a9:	e8 12 e9 ff ff       	callq  400ec0 <sprintf@plt>
  4025ae:	48 c7 c1 ff ff ff ff 	mov    $0xffffffffffffffff,%rcx
  4025b5:	b8 00 00 00 00       	mov    $0x0,%eax
  4025ba:	4c 89 ef             	mov    %r13,%rdi
  4025bd:	f2 ae                	repnz scas %es:(%rdi),%al
  4025bf:	48 89 ca             	mov    %rcx,%rdx
  4025c2:	48 f7 d2             	not    %rdx
  4025c5:	48 8d 52 ff          	lea    -0x1(%rdx),%rdx
  4025c9:	4c 89 ee             	mov    %r13,%rsi
  4025cc:	89 df                	mov    %ebx,%edi
  4025ce:	e8 e7 fc ff ff       	callq  4022ba <rio_writen>
  4025d3:	48 85 c0             	test   %rax,%rax
  4025d6:	0f 88 31 03 00 00    	js     40290d <submitr+0x4f0>
  4025dc:	89 de                	mov    %ebx,%esi
  4025de:	48 8d bc 24 20 80 00 	lea    0x8020(%rsp),%rdi
  4025e5:	00 
  4025e6:	e8 b7 fb ff ff       	callq  4021a2 <rio_readinitb>
  4025eb:	ba 00 20 00 00       	mov    $0x2000,%edx
  4025f0:	48 8d b4 24 20 60 00 	lea    0x6020(%rsp),%rsi
  4025f7:	00 
  4025f8:	48 8d bc 24 20 80 00 	lea    0x8020(%rsp),%rdi
  4025ff:	00 
  402600:	e8 9c fd ff ff       	callq  4023a1 <rio_readlineb>
  402605:	48 85 c0             	test   %rax,%rax
  402608:	0f 8e 6e 03 00 00    	jle    40297c <submitr+0x55f>
  40260e:	4c 8d 44 24 10       	lea    0x10(%rsp),%r8
  402613:	48 8d 8c 24 1c 20 00 	lea    0x201c(%rsp),%rcx
  40261a:	00 
  40261b:	48 8d 94 24 20 20 00 	lea    0x2020(%rsp),%rdx
  402622:	00 
  402623:	be 1f 40 40 00       	mov    $0x40401f,%esi
  402628:	48 8d bc 24 20 60 00 	lea    0x6020(%rsp),%rdi
  40262f:	00 
  402630:	b8 00 00 00 00       	mov    $0x0,%eax
  402635:	e8 16 e8 ff ff       	callq  400e50 <__isoc99_sscanf@plt>
  40263a:	48 8d b4 24 20 60 00 	lea    0x6020(%rsp),%rsi
  402641:	00 
  402642:	bf 36 40 40 00       	mov    $0x404036,%edi
  402647:	b9 03 00 00 00       	mov    $0x3,%ecx
  40264c:	f3 a6                	repz cmpsb %es:(%rdi),%ds:(%rsi)
  40264e:	0f 97 c0             	seta   %al
  402651:	1c 00                	sbb    $0x0,%al
  402653:	84 c0                	test   %al,%al
  402655:	0f 84 9f 03 00 00    	je     4029fa <submitr+0x5dd>
  40265b:	ba 00 20 00 00       	mov    $0x2000,%edx
  402660:	48 8d b4 24 20 60 00 	lea    0x6020(%rsp),%rsi
  402667:	00 
  402668:	48 8d bc 24 20 80 00 	lea    0x8020(%rsp),%rdi
  40266f:	00 
  402670:	e8 2c fd ff ff       	callq  4023a1 <rio_readlineb>
  402675:	48 85 c0             	test   %rax,%rax
  402678:	7f c0                	jg     40263a <submitr+0x21d>
  40267a:	48 b8 45 72 72 6f 72 	movabs $0x43203a726f727245,%rax
  402681:	3a 20 43 
  402684:	48 ba 6c 69 65 6e 74 	movabs $0x6e7520746e65696c,%rdx
  40268b:	20 75 6e 
  40268e:	48 89 45 00          	mov    %rax,0x0(%rbp)
  402692:	48 89 55 08          	mov    %rdx,0x8(%rbp)
  402696:	48 b8 61 62 6c 65 20 	movabs $0x206f7420656c6261,%rax
  40269d:	74 6f 20 
  4026a0:	48 ba 72 65 61 64 20 	movabs $0x6165682064616572,%rdx
  4026a7:	68 65 61 
  4026aa:	48 89 45 10          	mov    %rax,0x10(%rbp)
  4026ae:	48 89 55 18          	mov    %rdx,0x18(%rbp)
  4026b2:	48 b8 64 65 72 73 20 	movabs $0x6f72662073726564,%rax
  4026b9:	66 72 6f 
  4026bc:	48 ba 6d 20 74 68 65 	movabs $0x657220656874206d,%rdx
  4026c3:	20 72 65 
  4026c6:	48 89 45 20          	mov    %rax,0x20(%rbp)
  4026ca:	48 89 55 28          	mov    %rdx,0x28(%rbp)
  4026ce:	48 b8 73 75 6c 74 20 	movabs $0x72657320746c7573,%rax
  4026d5:	73 65 72 
  4026d8:	48 89 45 30          	mov    %rax,0x30(%rbp)
  4026dc:	c7 45 38 76 65 72 00 	movl   $0x726576,0x38(%rbp)
  4026e3:	89 df                	mov    %ebx,%edi
  4026e5:	e8 d6 e6 ff ff       	callq  400dc0 <close@plt>
  4026ea:	b8 ff ff ff ff       	mov    $0xffffffff,%eax
  4026ef:	48 81 c4 48 a0 00 00 	add    $0xa048,%rsp
  4026f6:	5b                   	pop    %rbx
  4026f7:	5d                   	pop    %rbp
  4026f8:	41 5c                	pop    %r12
  4026fa:	41 5d                	pop    %r13
  4026fc:	41 5e                	pop    %r14
  4026fe:	41 5f                	pop    %r15
  402700:	c3                   	retq   
  402701:	48 b8 45 72 72 6f 72 	movabs $0x43203a726f727245,%rax
  402708:	3a 20 43 
  40270b:	48 ba 6c 69 65 6e 74 	movabs $0x6e7520746e65696c,%rdx
  402712:	20 75 6e 
  402715:	48 89 45 00          	mov    %rax,0x0(%rbp)
  402719:	48 89 55 08          	mov    %rdx,0x8(%rbp)
  40271d:	48 b8 61 62 6c 65 20 	movabs $0x206f7420656c6261,%rax
  402724:	74 6f 20 
  402727:	48 ba 63 72 65 61 74 	movabs $0x7320657461657263,%rdx
  40272e:	65 20 73 
  402731:	48 89 45 10          	mov    %rax,0x10(%rbp)
  402735:	48 89 55 18          	mov    %rdx,0x18(%rbp)
  402739:	c7 45 20 6f 63 6b 65 	movl   $0x656b636f,0x20(%rbp)
  402740:	66 c7 45 24 74 00    	movw   $0x74,0x24(%rbp)
  402746:	b8 ff ff ff ff       	mov    $0xffffffff,%eax
  40274b:	eb a2                	jmp    4026ef <submitr+0x2d2>
  40274d:	48 b8 45 72 72 6f 72 	movabs $0x44203a726f727245,%rax
  402754:	3a 20 44 
  402757:	48 ba 4e 53 20 69 73 	movabs $0x6e7520736920534e,%rdx
  40275e:	20 75 6e 
  402761:	48 89 45 00          	mov    %rax,0x0(%rbp)
  402765:	48 89 55 08          	mov    %rdx,0x8(%rbp)
  402769:	48 b8 61 62 6c 65 20 	movabs $0x206f7420656c6261,%rax
  402770:	74 6f 20 
  402773:	48 ba 72 65 73 6f 6c 	movabs $0x2065766c6f736572,%rdx
  40277a:	76 65 20 
  40277d:	48 89 45 10          	mov    %rax,0x10(%rbp)
  402781:	48 89 55 18          	mov    %rdx,0x18(%rbp)
  402785:	48 b8 73 65 72 76 65 	movabs $0x6120726576726573,%rax
  40278c:	72 20 61 
  40278f:	48 89 45 20          	mov    %rax,0x20(%rbp)
  402793:	c7 45 28 64 64 72 65 	movl   $0x65726464,0x28(%rbp)
  40279a:	66 c7 45 2c 73 73    	movw   $0x7373,0x2c(%rbp)
  4027a0:	c6 45 2e 00          	movb   $0x0,0x2e(%rbp)
  4027a4:	89 df                	mov    %ebx,%edi
  4027a6:	e8 15 e6 ff ff       	callq  400dc0 <close@plt>
  4027ab:	b8 ff ff ff ff       	mov    $0xffffffff,%eax
  4027b0:	e9 3a ff ff ff       	jmpq   4026ef <submitr+0x2d2>
  4027b5:	48 b8 45 72 72 6f 72 	movabs $0x55203a726f727245,%rax
  4027bc:	3a 20 55 
  4027bf:	48 ba 6e 61 62 6c 65 	movabs $0x6f7420656c62616e,%rdx
  4027c6:	20 74 6f 
  4027c9:	48 89 45 00          	mov    %rax,0x0(%rbp)
  4027cd:	48 89 55 08          	mov    %rdx,0x8(%rbp)
  4027d1:	48 b8 20 63 6f 6e 6e 	movabs $0x7463656e6e6f6320,%rax
  4027d8:	65 63 74 
  4027db:	48 ba 20 74 6f 20 74 	movabs $0x20656874206f7420,%rdx
  4027e2:	68 65 20 
  4027e5:	48 89 45 10          	mov    %rax,0x10(%rbp)
  4027e9:	48 89 55 18          	mov    %rdx,0x18(%rbp)
  4027ed:	c7 45 20 73 65 72 76 	movl   $0x76726573,0x20(%rbp)
  4027f4:	66 c7 45 24 65 72    	movw   $0x7265,0x24(%rbp)
  4027fa:	c6 45 26 00          	movb   $0x0,0x26(%rbp)
  4027fe:	89 df                	mov    %ebx,%edi
  402800:	e8 bb e5 ff ff       	callq  400dc0 <close@plt>
  402805:	b8 ff ff ff ff       	mov    $0xffffffff,%eax
  40280a:	e9 e0 fe ff ff       	jmpq   4026ef <submitr+0x2d2>
  40280f:	48 b8 45 72 72 6f 72 	movabs $0x52203a726f727245,%rax
  402816:	3a 20 52 
  402819:	48 ba 65 73 75 6c 74 	movabs $0x747320746c757365,%rdx
  402820:	20 73 74 
  402823:	48 89 45 00          	mov    %rax,0x0(%rbp)
  402827:	48 89 55 08          	mov    %rdx,0x8(%rbp)
  40282b:	48 b8 72 69 6e 67 20 	movabs $0x6f6f7420676e6972,%rax
  402832:	74 6f 6f 
  402835:	48 ba 20 6c 61 72 67 	movabs $0x202e656772616c20,%rdx
  40283c:	65 2e 20 
  40283f:	48 89 45 10          	mov    %rax,0x10(%rbp)
  402843:	48 89 55 18          	mov    %rdx,0x18(%rbp)
  402847:	48 b8 49 6e 63 72 65 	movabs $0x6573616572636e49,%rax
  40284e:	61 73 65 
  402851:	48 ba 20 53 55 42 4d 	movabs $0x5254494d42555320,%rdx
  402858:	49 54 52 
  40285b:	48 89 45 20          	mov    %rax,0x20(%rbp)
  40285f:	48 89 55 28          	mov    %rdx,0x28(%rbp)
  402863:	48 b8 5f 4d 41 58 42 	movabs $0x46554258414d5f,%rax
  40286a:	55 46 00 
  40286d:	48 89 45 30          	mov    %rax,0x30(%rbp)
  402871:	89 df                	mov    %ebx,%edi
  402873:	e8 48 e5 ff ff       	callq  400dc0 <close@plt>
  402878:	b8 ff ff ff ff       	mov    $0xffffffff,%eax
  40287d:	e9 6d fe ff ff       	jmpq   4026ef <submitr+0x2d2>
  402882:	48 b8 45 72 72 6f 72 	movabs $0x52203a726f727245,%rax
  402889:	3a 20 52 
  40288c:	48 ba 65 73 75 6c 74 	movabs $0x747320746c757365,%rdx
  402893:	20 73 74 
  402896:	48 89 45 00          	mov    %rax,0x0(%rbp)
  40289a:	48 89 55 08          	mov    %rdx,0x8(%rbp)
  40289e:	48 b8 72 69 6e 67 20 	movabs $0x6e6f6320676e6972,%rax
  4028a5:	63 6f 6e 
  4028a8:	48 ba 74 61 69 6e 73 	movabs $0x6e6120736e696174,%rdx
  4028af:	20 61 6e 
  4028b2:	48 89 45 10          	mov    %rax,0x10(%rbp)
  4028b6:	48 89 55 18          	mov    %rdx,0x18(%rbp)
  4028ba:	48 b8 20 69 6c 6c 65 	movabs $0x6c6167656c6c6920,%rax
  4028c1:	67 61 6c 
  4028c4:	48 ba 20 6f 72 20 75 	movabs $0x72706e7520726f20,%rdx
  4028cb:	6e 70 72 
  4028ce:	48 89 45 20          	mov    %rax,0x20(%rbp)
  4028d2:	48 89 55 28          	mov    %rdx,0x28(%rbp)
  4028d6:	48 b8 69 6e 74 61 62 	movabs $0x20656c6261746e69,%rax
  4028dd:	6c 65 20 
  4028e0:	48 ba 63 68 61 72 61 	movabs $0x6574636172616863,%rdx
  4028e7:	63 74 65 
  4028ea:	48 89 45 30          	mov    %rax,0x30(%rbp)
  4028ee:	48 89 55 38          	mov    %rdx,0x38(%rbp)
  4028f2:	66 c7 45 40 72 2e    	movw   $0x2e72,0x40(%rbp)
  4028f8:	c6 45 42 00          	movb   $0x0,0x42(%rbp)
  4028fc:	89 df                	mov    %ebx,%edi
  4028fe:	e8 bd e4 ff ff       	callq  400dc0 <close@plt>
  402903:	b8 ff ff ff ff       	mov    $0xffffffff,%eax
  402908:	e9 e2 fd ff ff       	jmpq   4026ef <submitr+0x2d2>
  40290d:	48 b8 45 72 72 6f 72 	movabs $0x43203a726f727245,%rax
  402914:	3a 20 43 
  402917:	48 ba 6c 69 65 6e 74 	movabs $0x6e7520746e65696c,%rdx
  40291e:	20 75 6e 
  402921:	48 89 45 00          	mov    %rax,0x0(%rbp)
  402925:	48 89 55 08          	mov    %rdx,0x8(%rbp)
  402929:	48 b8 61 62 6c 65 20 	movabs $0x206f7420656c6261,%rax
  402930:	74 6f 20 
  402933:	48 ba 77 72 69 74 65 	movabs $0x6f74206574697277,%rdx
  40293a:	20 74 6f 
  40293d:	48 89 45 10          	mov    %rax,0x10(%rbp)
  402941:	48 89 55 18          	mov    %rdx,0x18(%rbp)
  402945:	48 b8 20 74 68 65 20 	movabs $0x7365722065687420,%rax
  40294c:	72 65 73 
  40294f:	48 ba 75 6c 74 20 73 	movabs $0x7672657320746c75,%rdx
  402956:	65 72 76 
  402959:	48 89 45 20          	mov    %rax,0x20(%rbp)
  40295d:	48 89 55 28          	mov    %rdx,0x28(%rbp)
  402961:	66 c7 45 30 65 72    	movw   $0x7265,0x30(%rbp)
  402967:	c6 45 32 00          	movb   $0x0,0x32(%rbp)
  40296b:	89 df                	mov    %ebx,%edi
  40296d:	e8 4e e4 ff ff       	callq  400dc0 <close@plt>
  402972:	b8 ff ff ff ff       	mov    $0xffffffff,%eax
  402977:	e9 73 fd ff ff       	jmpq   4026ef <submitr+0x2d2>
  40297c:	48 b8 45 72 72 6f 72 	movabs $0x43203a726f727245,%rax
  402983:	3a 20 43 
  402986:	48 ba 6c 69 65 6e 74 	movabs $0x6e7520746e65696c,%rdx
  40298d:	20 75 6e 
  402990:	48 89 45 00          	mov    %rax,0x0(%rbp)
  402994:	48 89 55 08          	mov    %rdx,0x8(%rbp)
  402998:	48 b8 61 62 6c 65 20 	movabs $0x206f7420656c6261,%rax
  40299f:	74 6f 20 
  4029a2:	48 ba 72 65 61 64 20 	movabs $0x7269662064616572,%rdx
  4029a9:	66 69 72 
  4029ac:	48 89 45 10          	mov    %rax,0x10(%rbp)
  4029b0:	48 89 55 18          	mov    %rdx,0x18(%rbp)
  4029b4:	48 b8 73 74 20 68 65 	movabs $0x6564616568207473,%rax
  4029bb:	61 64 65 
  4029be:	48 ba 72 20 66 72 6f 	movabs $0x72206d6f72662072,%rdx
  4029c5:	6d 20 72 
  4029c8:	48 89 45 20          	mov    %rax,0x20(%rbp)
  4029cc:	48 89 55 28          	mov    %rdx,0x28(%rbp)
  4029d0:	48 b8 65 73 75 6c 74 	movabs $0x657320746c757365,%rax
  4029d7:	20 73 65 
  4029da:	48 89 45 30          	mov    %rax,0x30(%rbp)
  4029de:	c7 45 38 72 76 65 72 	movl   $0x72657672,0x38(%rbp)
  4029e5:	c6 45 3c 00          	movb   $0x0,0x3c(%rbp)
  4029e9:	89 df                	mov    %ebx,%edi
  4029eb:	e8 d0 e3 ff ff       	callq  400dc0 <close@plt>
  4029f0:	b8 ff ff ff ff       	mov    $0xffffffff,%eax
  4029f5:	e9 f5 fc ff ff       	jmpq   4026ef <submitr+0x2d2>
  4029fa:	ba 00 20 00 00       	mov    $0x2000,%edx
  4029ff:	48 8d b4 24 20 60 00 	lea    0x6020(%rsp),%rsi
  402a06:	00 
  402a07:	48 8d bc 24 20 80 00 	lea    0x8020(%rsp),%rdi
  402a0e:	00 
  402a0f:	e8 8d f9 ff ff       	callq  4023a1 <rio_readlineb>
  402a14:	48 85 c0             	test   %rax,%rax
  402a17:	0f 8e 91 00 00 00    	jle    402aae <submitr+0x691>
  402a1d:	8b 94 24 1c 20 00 00 	mov    0x201c(%rsp),%edx
  402a24:	81 fa c8 00 00 00    	cmp    $0xc8,%edx
  402a2a:	0f 85 02 01 00 00    	jne    402b32 <submitr+0x715>
  402a30:	48 8d b4 24 20 60 00 	lea    0x6020(%rsp),%rsi
  402a37:	00 
  402a38:	48 89 ef             	mov    %rbp,%rdi
  402a3b:	e8 10 e3 ff ff       	callq  400d50 <strcpy@plt>
  402a40:	89 df                	mov    %ebx,%edi
  402a42:	e8 79 e3 ff ff       	callq  400dc0 <close@plt>
  402a47:	bf 30 40 40 00       	mov    $0x404030,%edi
  402a4c:	b9 04 00 00 00       	mov    $0x4,%ecx
  402a51:	48 89 ee             	mov    %rbp,%rsi
  402a54:	f3 a6                	repz cmpsb %es:(%rdi),%ds:(%rsi)
  402a56:	0f 97 c0             	seta   %al
  402a59:	1c 00                	sbb    $0x0,%al
  402a5b:	0f be c0             	movsbl %al,%eax
  402a5e:	85 c0                	test   %eax,%eax
  402a60:	0f 84 89 fc ff ff    	je     4026ef <submitr+0x2d2>
  402a66:	bf 34 40 40 00       	mov    $0x404034,%edi
  402a6b:	b9 05 00 00 00       	mov    $0x5,%ecx
  402a70:	48 89 ee             	mov    %rbp,%rsi
  402a73:	f3 a6                	repz cmpsb %es:(%rdi),%ds:(%rsi)
  402a75:	0f 97 c0             	seta   %al
  402a78:	1c 00                	sbb    $0x0,%al
  402a7a:	0f be c0             	movsbl %al,%eax
  402a7d:	85 c0                	test   %eax,%eax
  402a7f:	0f 84 6a fc ff ff    	je     4026ef <submitr+0x2d2>
  402a85:	bf 39 40 40 00       	mov    $0x404039,%edi
  402a8a:	b9 03 00 00 00       	mov    $0x3,%ecx
  402a8f:	48 89 ee             	mov    %rbp,%rsi
  402a92:	f3 a6                	repz cmpsb %es:(%rdi),%ds:(%rsi)
  402a94:	0f 97 c0             	seta   %al
  402a97:	1c 00                	sbb    $0x0,%al
  402a99:	0f be c0             	movsbl %al,%eax
  402a9c:	85 c0                	test   %eax,%eax
  402a9e:	0f 84 4b fc ff ff    	je     4026ef <submitr+0x2d2>
  402aa4:	b8 ff ff ff ff       	mov    $0xffffffff,%eax
  402aa9:	e9 41 fc ff ff       	jmpq   4026ef <submitr+0x2d2>
  402aae:	48 b8 45 72 72 6f 72 	movabs $0x43203a726f727245,%rax
  402ab5:	3a 20 43 
  402ab8:	48 ba 6c 69 65 6e 74 	movabs $0x6e7520746e65696c,%rdx
  402abf:	20 75 6e 
  402ac2:	48 89 45 00          	mov    %rax,0x0(%rbp)
  402ac6:	48 89 55 08          	mov    %rdx,0x8(%rbp)
  402aca:	48 b8 61 62 6c 65 20 	movabs $0x206f7420656c6261,%rax
  402ad1:	74 6f 20 
  402ad4:	48 ba 72 65 61 64 20 	movabs $0x6174732064616572,%rdx
  402adb:	73 74 61 
  402ade:	48 89 45 10          	mov    %rax,0x10(%rbp)
  402ae2:	48 89 55 18          	mov    %rdx,0x18(%rbp)
  402ae6:	48 b8 74 75 73 20 6d 	movabs $0x7373656d20737574,%rax
  402aed:	65 73 73 
  402af0:	48 ba 61 67 65 20 66 	movabs $0x6d6f726620656761,%rdx
  402af7:	72 6f 6d 
  402afa:	48 89 45 20          	mov    %rax,0x20(%rbp)
  402afe:	48 89 55 28          	mov    %rdx,0x28(%rbp)
  402b02:	48 b8 20 72 65 73 75 	movabs $0x20746c7573657220,%rax
  402b09:	6c 74 20 
  402b0c:	48 89 45 30          	mov    %rax,0x30(%rbp)
  402b10:	c7 45 38 73 65 72 76 	movl   $0x76726573,0x38(%rbp)
  402b17:	66 c7 45 3c 65 72    	movw   $0x7265,0x3c(%rbp)
  402b1d:	c6 45 3e 00          	movb   $0x0,0x3e(%rbp)
  402b21:	89 df                	mov    %ebx,%edi
  402b23:	e8 98 e2 ff ff       	callq  400dc0 <close@plt>
  402b28:	b8 ff ff ff ff       	mov    $0xffffffff,%eax
  402b2d:	e9 bd fb ff ff       	jmpq   4026ef <submitr+0x2d2>
  402b32:	48 8d 4c 24 10       	lea    0x10(%rsp),%rcx
  402b37:	be e8 3f 40 00       	mov    $0x403fe8,%esi
  402b3c:	48 89 ef             	mov    %rbp,%rdi
  402b3f:	b8 00 00 00 00       	mov    $0x0,%eax
  402b44:	e8 77 e3 ff ff       	callq  400ec0 <sprintf@plt>
  402b49:	89 df                	mov    %ebx,%edi
  402b4b:	e8 70 e2 ff ff       	callq  400dc0 <close@plt>
  402b50:	b8 ff ff ff ff       	mov    $0xffffffff,%eax
  402b55:	e9 95 fb ff ff       	jmpq   4026ef <submitr+0x2d2>

0000000000402b5a <init_timeout>:
  402b5a:	85 ff                	test   %edi,%edi
  402b5c:	74 24                	je     402b82 <init_timeout+0x28>
  402b5e:	53                   	push   %rbx
  402b5f:	89 fb                	mov    %edi,%ebx
  402b61:	78 18                	js     402b7b <init_timeout+0x21>
  402b63:	be b4 21 40 00       	mov    $0x4021b4,%esi
  402b68:	bf 0e 00 00 00       	mov    $0xe,%edi
  402b6d:	e8 6e e2 ff ff       	callq  400de0 <signal@plt>
  402b72:	89 df                	mov    %ebx,%edi
  402b74:	e8 37 e2 ff ff       	callq  400db0 <alarm@plt>
  402b79:	5b                   	pop    %rbx
  402b7a:	c3                   	retq   
  402b7b:	bb 00 00 00 00       	mov    $0x0,%ebx
  402b80:	eb e1                	jmp    402b63 <init_timeout+0x9>
  402b82:	c3                   	retq   

0000000000402b83 <init_driver>:
  402b83:	55                   	push   %rbp
  402b84:	53                   	push   %rbx
  402b85:	48 83 ec 18          	sub    $0x18,%rsp
  402b89:	48 89 fd             	mov    %rdi,%rbp
  402b8c:	be 01 00 00 00       	mov    $0x1,%esi
  402b91:	bf 0d 00 00 00       	mov    $0xd,%edi
  402b96:	e8 45 e2 ff ff       	callq  400de0 <signal@plt>
  402b9b:	be 01 00 00 00       	mov    $0x1,%esi
  402ba0:	bf 1d 00 00 00       	mov    $0x1d,%edi
  402ba5:	e8 36 e2 ff ff       	callq  400de0 <signal@plt>
  402baa:	be 01 00 00 00       	mov    $0x1,%esi
  402baf:	bf 1d 00 00 00       	mov    $0x1d,%edi
  402bb4:	e8 27 e2 ff ff       	callq  400de0 <signal@plt>
  402bb9:	ba 00 00 00 00       	mov    $0x0,%edx
  402bbe:	be 01 00 00 00       	mov    $0x1,%esi
  402bc3:	bf 02 00 00 00       	mov    $0x2,%edi
  402bc8:	e8 33 e3 ff ff       	callq  400f00 <socket@plt>
  402bcd:	85 c0                	test   %eax,%eax
  402bcf:	0f 88 83 00 00 00    	js     402c58 <init_driver+0xd5>
  402bd5:	89 c3                	mov    %eax,%ebx
  402bd7:	bf 78 39 40 00       	mov    $0x403978,%edi
  402bdc:	e8 0f e2 ff ff       	callq  400df0 <gethostbyname@plt>
  402be1:	48 85 c0             	test   %rax,%rax
  402be4:	0f 84 ba 00 00 00    	je     402ca4 <init_driver+0x121>
  402bea:	48 c7 44 24 02 00 00 	movq   $0x0,0x2(%rsp)
  402bf1:	00 00 
  402bf3:	c7 44 24 0a 00 00 00 	movl   $0x0,0xa(%rsp)
  402bfa:	00 
  402bfb:	66 c7 44 24 0e 00 00 	movw   $0x0,0xe(%rsp)
  402c02:	66 c7 04 24 02 00    	movw   $0x2,(%rsp)
  402c08:	48 8b 48 18          	mov    0x18(%rax),%rcx
  402c0c:	48 63 50 14          	movslq 0x14(%rax),%rdx
  402c10:	48 8d 7c 24 04       	lea    0x4(%rsp),%rdi
  402c15:	48 8b 31             	mov    (%rcx),%rsi
  402c18:	e8 53 e2 ff ff       	callq  400e70 <memmove@plt>
  402c1d:	66 c7 44 24 02 54 0a 	movw   $0xa54,0x2(%rsp)
  402c24:	ba 10 00 00 00       	mov    $0x10,%edx
  402c29:	48 89 e6             	mov    %rsp,%rsi
  402c2c:	89 df                	mov    %ebx,%edi
  402c2e:	e8 ad e2 ff ff       	callq  400ee0 <connect@plt>
  402c33:	85 c0                	test   %eax,%eax
  402c35:	0f 88 d1 00 00 00    	js     402d0c <init_driver+0x189>
  402c3b:	89 df                	mov    %ebx,%edi
  402c3d:	e8 7e e1 ff ff       	callq  400dc0 <close@plt>
  402c42:	66 c7 45 00 4f 4b    	movw   $0x4b4f,0x0(%rbp)
  402c48:	c6 45 02 00          	movb   $0x0,0x2(%rbp)
  402c4c:	b8 00 00 00 00       	mov    $0x0,%eax
  402c51:	48 83 c4 18          	add    $0x18,%rsp
  402c55:	5b                   	pop    %rbx
  402c56:	5d                   	pop    %rbp
  402c57:	c3                   	retq   
  402c58:	48 b8 45 72 72 6f 72 	movabs $0x43203a726f727245,%rax
  402c5f:	3a 20 43 
  402c62:	48 ba 6c 69 65 6e 74 	movabs $0x6e7520746e65696c,%rdx
  402c69:	20 75 6e 
  402c6c:	48 89 45 00          	mov    %rax,0x0(%rbp)
  402c70:	48 89 55 08          	mov    %rdx,0x8(%rbp)
  402c74:	48 b8 61 62 6c 65 20 	movabs $0x206f7420656c6261,%rax
  402c7b:	74 6f 20 
  402c7e:	48 ba 63 72 65 61 74 	movabs $0x7320657461657263,%rdx
  402c85:	65 20 73 
  402c88:	48 89 45 10          	mov    %rax,0x10(%rbp)
  402c8c:	48 89 55 18          	mov    %rdx,0x18(%rbp)
  402c90:	c7 45 20 6f 63 6b 65 	movl   $0x656b636f,0x20(%rbp)
  402c97:	66 c7 45 24 74 00    	movw   $0x74,0x24(%rbp)
  402c9d:	b8 ff ff ff ff       	mov    $0xffffffff,%eax
  402ca2:	eb ad                	jmp    402c51 <init_driver+0xce>
  402ca4:	48 b8 45 72 72 6f 72 	movabs $0x44203a726f727245,%rax
  402cab:	3a 20 44 
  402cae:	48 ba 4e 53 20 69 73 	movabs $0x6e7520736920534e,%rdx
  402cb5:	20 75 6e 
  402cb8:	48 89 45 00          	mov    %rax,0x0(%rbp)
  402cbc:	48 89 55 08          	mov    %rdx,0x8(%rbp)
  402cc0:	48 b8 61 62 6c 65 20 	movabs $0x206f7420656c6261,%rax
  402cc7:	74 6f 20 
  402cca:	48 ba 72 65 73 6f 6c 	movabs $0x2065766c6f736572,%rdx
  402cd1:	76 65 20 
  402cd4:	48 89 45 10          	mov    %rax,0x10(%rbp)
  402cd8:	48 89 55 18          	mov    %rdx,0x18(%rbp)
  402cdc:	48 b8 73 65 72 76 65 	movabs $0x6120726576726573,%rax
  402ce3:	72 20 61 
  402ce6:	48 89 45 20          	mov    %rax,0x20(%rbp)
  402cea:	c7 45 28 64 64 72 65 	movl   $0x65726464,0x28(%rbp)
  402cf1:	66 c7 45 2c 73 73    	movw   $0x7373,0x2c(%rbp)
  402cf7:	c6 45 2e 00          	movb   $0x0,0x2e(%rbp)
  402cfb:	89 df                	mov    %ebx,%edi
  402cfd:	e8 be e0 ff ff       	callq  400dc0 <close@plt>
  402d02:	b8 ff ff ff ff       	mov    $0xffffffff,%eax
  402d07:	e9 45 ff ff ff       	jmpq   402c51 <init_driver+0xce>
  402d0c:	48 b8 45 72 72 6f 72 	movabs $0x55203a726f727245,%rax
  402d13:	3a 20 55 
  402d16:	48 ba 6e 61 62 6c 65 	movabs $0x6f7420656c62616e,%rdx
  402d1d:	20 74 6f 
  402d20:	48 89 45 00          	mov    %rax,0x0(%rbp)
  402d24:	48 89 55 08          	mov    %rdx,0x8(%rbp)
  402d28:	48 b8 20 63 6f 6e 6e 	movabs $0x7463656e6e6f6320,%rax
  402d2f:	65 63 74 
  402d32:	48 ba 20 74 6f 20 73 	movabs $0x76726573206f7420,%rdx
  402d39:	65 72 76 
  402d3c:	48 89 45 10          	mov    %rax,0x10(%rbp)
  402d40:	48 89 55 18          	mov    %rdx,0x18(%rbp)
  402d44:	66 c7 45 20 65 72    	movw   $0x7265,0x20(%rbp)
  402d4a:	c6 45 22 00          	movb   $0x0,0x22(%rbp)
  402d4e:	89 df                	mov    %ebx,%edi
  402d50:	e8 6b e0 ff ff       	callq  400dc0 <close@plt>
  402d55:	b8 ff ff ff ff       	mov    $0xffffffff,%eax
  402d5a:	e9 f2 fe ff ff       	jmpq   402c51 <init_driver+0xce>

0000000000402d5f <driver_post>:
  402d5f:	53                   	push   %rbx
  402d60:	4c 89 cb             	mov    %r9,%rbx
  402d63:	45 85 c0             	test   %r8d,%r8d
  402d66:	75 18                	jne    402d80 <driver_post+0x21>
  402d68:	48 85 ff             	test   %rdi,%rdi
  402d6b:	74 05                	je     402d72 <driver_post+0x13>
  402d6d:	80 3f 00             	cmpb   $0x0,(%rdi)
  402d70:	75 30                	jne    402da2 <driver_post+0x43>
  402d72:	66 c7 03 4f 4b       	movw   $0x4b4f,(%rbx)
  402d77:	c6 43 02 00          	movb   $0x0,0x2(%rbx)
  402d7b:	44 89 c0             	mov    %r8d,%eax
  402d7e:	5b                   	pop    %rbx
  402d7f:	c3                   	retq   
  402d80:	48 89 ce             	mov    %rcx,%rsi
  402d83:	bf 3c 40 40 00       	mov    $0x40403c,%edi
  402d88:	b8 00 00 00 00       	mov    $0x0,%eax
  402d8d:	e8 fe df ff ff       	callq  400d90 <printf@plt>
  402d92:	66 c7 03 4f 4b       	movw   $0x4b4f,(%rbx)
  402d97:	c6 43 02 00          	movb   $0x0,0x2(%rbx)
  402d9b:	b8 00 00 00 00       	mov    $0x0,%eax
  402da0:	eb dc                	jmp    402d7e <driver_post+0x1f>
  402da2:	48 83 ec 08          	sub    $0x8,%rsp
  402da6:	41 51                	push   %r9
  402da8:	49 89 c9             	mov    %rcx,%r9
  402dab:	49 89 d0             	mov    %rdx,%r8
  402dae:	48 89 f9             	mov    %rdi,%rcx
  402db1:	48 89 f2             	mov    %rsi,%rdx
  402db4:	be 0a 54 00 00       	mov    $0x540a,%esi
  402db9:	bf 78 39 40 00       	mov    $0x403978,%edi
  402dbe:	e8 5a f6 ff ff       	callq  40241d <submitr>
  402dc3:	48 83 c4 10          	add    $0x10,%rsp
  402dc7:	eb b5                	jmp    402d7e <driver_post+0x1f>

0000000000402dc9 <check>:
  402dc9:	89 f8                	mov    %edi,%eax
  402dcb:	c1 e8 1c             	shr    $0x1c,%eax
  402dce:	74 1d                	je     402ded <check+0x24>
  402dd0:	b9 00 00 00 00       	mov    $0x0,%ecx
  402dd5:	83 f9 1f             	cmp    $0x1f,%ecx
  402dd8:	7f 0d                	jg     402de7 <check+0x1e>
  402dda:	89 f8                	mov    %edi,%eax
  402ddc:	d3 e8                	shr    %cl,%eax
  402dde:	3c 0a                	cmp    $0xa,%al
  402de0:	74 11                	je     402df3 <check+0x2a>
  402de2:	83 c1 08             	add    $0x8,%ecx
  402de5:	eb ee                	jmp    402dd5 <check+0xc>
  402de7:	b8 01 00 00 00       	mov    $0x1,%eax
  402dec:	c3                   	retq   
  402ded:	b8 00 00 00 00       	mov    $0x0,%eax
  402df2:	c3                   	retq   
  402df3:	b8 00 00 00 00       	mov    $0x0,%eax
  402df8:	c3                   	retq   

0000000000402df9 <gencookie>:
  402df9:	53                   	push   %rbx
  402dfa:	83 c7 01             	add    $0x1,%edi
  402dfd:	e8 2e df ff ff       	callq  400d30 <srandom@plt>
  402e02:	e8 39 e0 ff ff       	callq  400e40 <random@plt>
  402e07:	89 c3                	mov    %eax,%ebx
  402e09:	89 c7                	mov    %eax,%edi
  402e0b:	e8 b9 ff ff ff       	callq  402dc9 <check>
  402e10:	85 c0                	test   %eax,%eax
  402e12:	74 ee                	je     402e02 <gencookie+0x9>
  402e14:	89 d8                	mov    %ebx,%eax
  402e16:	5b                   	pop    %rbx
  402e17:	c3                   	retq   
  402e18:	0f 1f 84 00 00 00 00 	nopl   0x0(%rax,%rax,1)
  402e1f:	00 

0000000000402e20 <__libc_csu_init>:
  402e20:	f3 0f 1e fa          	endbr64 
  402e24:	41 57                	push   %r15
  402e26:	49 89 d7             	mov    %rdx,%r15
  402e29:	41 56                	push   %r14
  402e2b:	49 89 f6             	mov    %rsi,%r14
  402e2e:	41 55                	push   %r13
  402e30:	41 89 fd             	mov    %edi,%r13d
  402e33:	41 54                	push   %r12
  402e35:	4c 8d 25 c4 1f 20 00 	lea    0x201fc4(%rip),%r12        # 604e00 <__frame_dummy_init_array_entry>
  402e3c:	55                   	push   %rbp
  402e3d:	48 8d 2d c4 1f 20 00 	lea    0x201fc4(%rip),%rbp        # 604e08 <__init_array_end>
  402e44:	53                   	push   %rbx
  402e45:	4c 29 e5             	sub    %r12,%rbp
  402e48:	48 83 ec 08          	sub    $0x8,%rsp
  402e4c:	e8 8f de ff ff       	callq  400ce0 <_init>
  402e51:	48 c1 fd 03          	sar    $0x3,%rbp
  402e55:	74 1f                	je     402e76 <__libc_csu_init+0x56>
  402e57:	31 db                	xor    %ebx,%ebx
  402e59:	0f 1f 80 00 00 00 00 	nopl   0x0(%rax)
  402e60:	4c 89 fa             	mov    %r15,%rdx
  402e63:	4c 89 f6             	mov    %r14,%rsi
  402e66:	44 89 ef             	mov    %r13d,%edi
  402e69:	41 ff 14 dc          	callq  *(%r12,%rbx,8)
  402e6d:	48 83 c3 01          	add    $0x1,%rbx
  402e71:	48 39 dd             	cmp    %rbx,%rbp
  402e74:	75 ea                	jne    402e60 <__libc_csu_init+0x40>
  402e76:	48 83 c4 08          	add    $0x8,%rsp
  402e7a:	5b                   	pop    %rbx
  402e7b:	5d                   	pop    %rbp
  402e7c:	41 5c                	pop    %r12
  402e7e:	41 5d                	pop    %r13
  402e80:	41 5e                	pop    %r14
  402e82:	41 5f                	pop    %r15
  402e84:	c3                   	retq   

0000000000402e85 <.annobin___libc_csu_fini.start>:
  402e85:	90                   	nop
  402e86:	66 2e 0f 1f 84 00 00 	nopw   %cs:0x0(%rax,%rax,1)
  402e8d:	00 00 00 

0000000000402e90 <__libc_csu_fini>:
  402e90:	f3 0f 1e fa          	endbr64 
  402e94:	c3                   	retq   

Disassembly of section .fini:

0000000000402e98 <_fini>:
  402e98:	f3 0f 1e fa          	endbr64 
  402e9c:	48 83 ec 08          	sub    $0x8,%rsp
  402ea0:	48 83 c4 08          	add    $0x8,%rsp
  402ea4:	c3                   	retq   
